
stratagem_hero_game.elf:     file format elf32-littlearm

Sections:
Idx Name          Size      VMA       LMA       File off  Algn
  0 .isr_vector   000001d8  08000000  08000000  00001000  2**0
                  CONTENTS, ALLOC, LOAD, READONLY, DATA
  1 .text         000048e4  080001e0  080001e0  000011e0  2**4
                  CONTENTS, ALLOC, LOAD, READONLY, CODE
  2 .rodata       00000144  08004ac4  08004ac4  00005ac4  2**2
                  CONTENTS, ALLOC, LOAD, READONLY, DATA
  3 .ARM.extab    00000000  08004c08  08004c08  000060a0  2**0
                  CONTENTS, READONLY
  4 .ARM          00000008  08004c08  08004c08  00005c08  2**2
                  CONTENTS, ALLOC, LOAD, READONLY, DATA
  5 .preinit_array 00000000  08004c10  08004c10  000060a0  2**0
                  CONTENTS, ALLOC, LOAD, DATA
  6 .init_array   00000004  08004c10  08004c10  00005c10  2**2
                  CONTENTS, ALLOC, LOAD, READONLY, DATA
  7 .fini_array   00000004  08004c14  08004c14  00005c14  2**2
                  CONTENTS, ALLOC, LOAD, READONLY, DATA
  8 .data         000000a0  20000000  08004c18  00006000  2**2
                  CONTENTS, ALLOC, LOAD, DATA
  9 .bss          000002e4  200000a0  08004cb8  000060a0  2**2
                  ALLOC
 10 ._user_heap_stack 00000604  20000384  08004cb8  00006384  2**0
                  ALLOC
 11 .ARM.attributes 00000030  00000000  00000000  000060a0  2**0
                  CONTENTS, READONLY
 12 .debug_info   00010702  00000000  00000000  000060d0  2**0
                  CONTENTS, READONLY, DEBUGGING, OCTETS
 13 .debug_abbrev 00002637  00000000  00000000  000167d2  2**0
                  CONTENTS, READONLY, DEBUGGING, OCTETS
 14 .debug_aranges 00000db0  00000000  00000000  00018e10  2**3
                  CONTENTS, READONLY, DEBUGGING, OCTETS
 15 .debug_rnglists 00000a8b  00000000  00000000  00019bc0  2**0
                  CONTENTS, READONLY, DEBUGGING, OCTETS
 16 .debug_macro  00025f60  00000000  00000000  0001a64b  2**0
                  CONTENTS, READONLY, DEBUGGING, OCTETS
 17 .debug_line   000114ff  00000000  00000000  000405ab  2**0
                  CONTENTS, READONLY, DEBUGGING, OCTETS
 18 .debug_str    000ecfb6  00000000  00000000  00051aaa  2**0
                  CONTENTS, READONLY, DEBUGGING, OCTETS
 19 .comment      00000043  00000000  00000000  0013ea60  2**0
                  CONTENTS, READONLY
 20 .debug_frame  00003c7c  00000000  00000000  0013eaa4  2**2
                  CONTENTS, READONLY, DEBUGGING, OCTETS
 21 .debug_line_str 00000069  00000000  00000000  00142720  2**0
                  CONTENTS, READONLY, DEBUGGING, OCTETS

Disassembly of section .text:

080001e0 <__do_global_dtors_aux>:
 80001e0:	b510      	push	{r4, lr}
 80001e2:	4c05      	ldr	r4, [pc, #20]	@ (80001f8 <__do_global_dtors_aux+0x18>)
 80001e4:	7823      	ldrb	r3, [r4, #0]
 80001e6:	b933      	cbnz	r3, 80001f6 <__do_global_dtors_aux+0x16>
 80001e8:	4b04      	ldr	r3, [pc, #16]	@ (80001fc <__do_global_dtors_aux+0x1c>)
 80001ea:	b113      	cbz	r3, 80001f2 <__do_global_dtors_aux+0x12>
 80001ec:	4804      	ldr	r0, [pc, #16]	@ (8000200 <__do_global_dtors_aux+0x20>)
 80001ee:	f3af 8000 	nop.w
 80001f2:	2301      	movs	r3, #1
 80001f4:	7023      	strb	r3, [r4, #0]
 80001f6:	bd10      	pop	{r4, pc}
 80001f8:	200000a0 	.word	0x200000a0
 80001fc:	00000000 	.word	0x00000000
 8000200:	08004aac 	.word	0x08004aac

08000204 <frame_dummy>:
 8000204:	b508      	push	{r3, lr}
 8000206:	4b03      	ldr	r3, [pc, #12]	@ (8000214 <frame_dummy+0x10>)
 8000208:	b11b      	cbz	r3, 8000212 <frame_dummy+0xe>
 800020a:	4903      	ldr	r1, [pc, #12]	@ (8000218 <frame_dummy+0x14>)
 800020c:	4803      	ldr	r0, [pc, #12]	@ (800021c <frame_dummy+0x18>)
 800020e:	f3af 8000 	nop.w
 8000212:	bd08      	pop	{r3, pc}
 8000214:	00000000 	.word	0x00000000
 8000218:	200000a4 	.word	0x200000a4
 800021c:	08004aac 	.word	0x08004aac

08000220 <memchr>:
 8000220:	f001 01ff 	and.w	r1, r1, #255	@ 0xff
 8000224:	2a10      	cmp	r2, #16
 8000226:	db2b      	blt.n	8000280 <memchr+0x60>
 8000228:	f010 0f07 	tst.w	r0, #7
 800022c:	d008      	beq.n	8000240 <memchr+0x20>
 800022e:	f810 3b01 	ldrb.w	r3, [r0], #1
 8000232:	3a01      	subs	r2, #1
 8000234:	428b      	cmp	r3, r1
 8000236:	d02d      	beq.n	8000294 <memchr+0x74>
 8000238:	f010 0f07 	tst.w	r0, #7
 800023c:	b342      	cbz	r2, 8000290 <memchr+0x70>
 800023e:	d1f6      	bne.n	800022e <memchr+0xe>
 8000240:	b4f0      	push	{r4, r5, r6, r7}
 8000242:	ea41 2101 	orr.w	r1, r1, r1, lsl #8
 8000246:	ea41 4101 	orr.w	r1, r1, r1, lsl #16
 800024a:	f022 0407 	bic.w	r4, r2, #7
 800024e:	f07f 0700 	mvns.w	r7, #0
 8000252:	2300      	movs	r3, #0
 8000254:	e8f0 5602 	ldrd	r5, r6, [r0], #8
 8000258:	3c08      	subs	r4, #8
 800025a:	ea85 0501 	eor.w	r5, r5, r1
 800025e:	ea86 0601 	eor.w	r6, r6, r1
 8000262:	fa85 f547 	uadd8	r5, r5, r7
 8000266:	faa3 f587 	sel	r5, r3, r7
 800026a:	fa86 f647 	uadd8	r6, r6, r7
 800026e:	faa5 f687 	sel	r6, r5, r7
 8000272:	b98e      	cbnz	r6, 8000298 <memchr+0x78>
 8000274:	d1ee      	bne.n	8000254 <memchr+0x34>
 8000276:	bcf0      	pop	{r4, r5, r6, r7}
 8000278:	f001 01ff 	and.w	r1, r1, #255	@ 0xff
 800027c:	f002 0207 	and.w	r2, r2, #7
 8000280:	b132      	cbz	r2, 8000290 <memchr+0x70>
 8000282:	f810 3b01 	ldrb.w	r3, [r0], #1
 8000286:	3a01      	subs	r2, #1
 8000288:	ea83 0301 	eor.w	r3, r3, r1
 800028c:	b113      	cbz	r3, 8000294 <memchr+0x74>
 800028e:	d1f8      	bne.n	8000282 <memchr+0x62>
 8000290:	2000      	movs	r0, #0
 8000292:	4770      	bx	lr
 8000294:	3801      	subs	r0, #1
 8000296:	4770      	bx	lr
 8000298:	2d00      	cmp	r5, #0
 800029a:	bf06      	itte	eq
 800029c:	4635      	moveq	r5, r6
 800029e:	3803      	subeq	r0, #3
 80002a0:	3807      	subne	r0, #7
 80002a2:	f015 0f01 	tst.w	r5, #1
 80002a6:	d107      	bne.n	80002b8 <memchr+0x98>
 80002a8:	3001      	adds	r0, #1
 80002aa:	f415 7f80 	tst.w	r5, #256	@ 0x100
 80002ae:	bf02      	ittt	eq
 80002b0:	3001      	addeq	r0, #1
 80002b2:	f415 3fc0 	tsteq.w	r5, #98304	@ 0x18000
 80002b6:	3001      	addeq	r0, #1
 80002b8:	bcf0      	pop	{r4, r5, r6, r7}
 80002ba:	3801      	subs	r0, #1
 80002bc:	4770      	bx	lr
 80002be:	bf00      	nop

080002c0 <__aeabi_uldivmod>:
 80002c0:	b953      	cbnz	r3, 80002d8 <__aeabi_uldivmod+0x18>
 80002c2:	b94a      	cbnz	r2, 80002d8 <__aeabi_uldivmod+0x18>
 80002c4:	2900      	cmp	r1, #0
 80002c6:	bf08      	it	eq
 80002c8:	2800      	cmpeq	r0, #0
 80002ca:	bf1c      	itt	ne
 80002cc:	f04f 31ff 	movne.w	r1, #4294967295	@ 0xffffffff
 80002d0:	f04f 30ff 	movne.w	r0, #4294967295	@ 0xffffffff
 80002d4:	f000 b988 	b.w	80005e8 <__aeabi_idiv0>
 80002d8:	f1ad 0c08 	sub.w	ip, sp, #8
 80002dc:	e96d ce04 	strd	ip, lr, [sp, #-16]!
 80002e0:	f000 f806 	bl	80002f0 <__udivmoddi4>
 80002e4:	f8dd e004 	ldr.w	lr, [sp, #4]
 80002e8:	e9dd 2302 	ldrd	r2, r3, [sp, #8]
 80002ec:	b004      	add	sp, #16
 80002ee:	4770      	bx	lr

080002f0 <__udivmoddi4>:
 80002f0:	e92d 47f0 	stmdb	sp!, {r4, r5, r6, r7, r8, r9, sl, lr}
 80002f4:	9d08      	ldr	r5, [sp, #32]
 80002f6:	468e      	mov	lr, r1
 80002f8:	4604      	mov	r4, r0
 80002fa:	4688      	mov	r8, r1
 80002fc:	2b00      	cmp	r3, #0
 80002fe:	d14a      	bne.n	8000396 <__udivmoddi4+0xa6>
 8000300:	428a      	cmp	r2, r1
 8000302:	4617      	mov	r7, r2
 8000304:	d962      	bls.n	80003cc <__udivmoddi4+0xdc>
 8000306:	fab2 f682 	clz	r6, r2
 800030a:	b14e      	cbz	r6, 8000320 <__udivmoddi4+0x30>
 800030c:	f1c6 0320 	rsb	r3, r6, #32
 8000310:	fa01 f806 	lsl.w	r8, r1, r6
 8000314:	fa20 f303 	lsr.w	r3, r0, r3
 8000318:	40b7      	lsls	r7, r6
 800031a:	ea43 0808 	orr.w	r8, r3, r8
 800031e:	40b4      	lsls	r4, r6
 8000320:	ea4f 4e17 	mov.w	lr, r7, lsr #16
 8000324:	fa1f fc87 	uxth.w	ip, r7
 8000328:	fbb8 f1fe 	udiv	r1, r8, lr
 800032c:	0c23      	lsrs	r3, r4, #16
 800032e:	fb0e 8811 	mls	r8, lr, r1, r8
 8000332:	ea43 4308 	orr.w	r3, r3, r8, lsl #16
 8000336:	fb01 f20c 	mul.w	r2, r1, ip
 800033a:	429a      	cmp	r2, r3
 800033c:	d909      	bls.n	8000352 <__udivmoddi4+0x62>
 800033e:	18fb      	adds	r3, r7, r3
 8000340:	f101 30ff 	add.w	r0, r1, #4294967295	@ 0xffffffff
 8000344:	f080 80ea 	bcs.w	800051c <__udivmoddi4+0x22c>
 8000348:	429a      	cmp	r2, r3
 800034a:	f240 80e7 	bls.w	800051c <__udivmoddi4+0x22c>
 800034e:	3902      	subs	r1, #2
 8000350:	443b      	add	r3, r7
 8000352:	1a9a      	subs	r2, r3, r2
 8000354:	b2a3      	uxth	r3, r4
 8000356:	fbb2 f0fe 	udiv	r0, r2, lr
 800035a:	fb0e 2210 	mls	r2, lr, r0, r2
 800035e:	ea43 4302 	orr.w	r3, r3, r2, lsl #16
 8000362:	fb00 fc0c 	mul.w	ip, r0, ip
 8000366:	459c      	cmp	ip, r3
 8000368:	d909      	bls.n	800037e <__udivmoddi4+0x8e>
 800036a:	18fb      	adds	r3, r7, r3
 800036c:	f100 32ff 	add.w	r2, r0, #4294967295	@ 0xffffffff
 8000370:	f080 80d6 	bcs.w	8000520 <__udivmoddi4+0x230>
 8000374:	459c      	cmp	ip, r3
 8000376:	f240 80d3 	bls.w	8000520 <__udivmoddi4+0x230>
 800037a:	443b      	add	r3, r7
 800037c:	3802      	subs	r0, #2
 800037e:	ea40 4001 	orr.w	r0, r0, r1, lsl #16
 8000382:	eba3 030c 	sub.w	r3, r3, ip
 8000386:	2100      	movs	r1, #0
 8000388:	b11d      	cbz	r5, 8000392 <__udivmoddi4+0xa2>
 800038a:	40f3      	lsrs	r3, r6
 800038c:	2200      	movs	r2, #0
 800038e:	e9c5 3200 	strd	r3, r2, [r5]
 8000392:	e8bd 87f0 	ldmia.w	sp!, {r4, r5, r6, r7, r8, r9, sl, pc}
 8000396:	428b      	cmp	r3, r1
 8000398:	d905      	bls.n	80003a6 <__udivmoddi4+0xb6>
 800039a:	b10d      	cbz	r5, 80003a0 <__udivmoddi4+0xb0>
 800039c:	e9c5 0100 	strd	r0, r1, [r5]
 80003a0:	2100      	movs	r1, #0
 80003a2:	4608      	mov	r0, r1
 80003a4:	e7f5      	b.n	8000392 <__udivmoddi4+0xa2>
 80003a6:	fab3 f183 	clz	r1, r3
 80003aa:	2900      	cmp	r1, #0
 80003ac:	d146      	bne.n	800043c <__udivmoddi4+0x14c>
 80003ae:	4573      	cmp	r3, lr
 80003b0:	d302      	bcc.n	80003b8 <__udivmoddi4+0xc8>
 80003b2:	4282      	cmp	r2, r0
 80003b4:	f200 8105 	bhi.w	80005c2 <__udivmoddi4+0x2d2>
 80003b8:	1a84      	subs	r4, r0, r2
 80003ba:	eb6e 0203 	sbc.w	r2, lr, r3
 80003be:	2001      	movs	r0, #1
 80003c0:	4690      	mov	r8, r2
 80003c2:	2d00      	cmp	r5, #0
 80003c4:	d0e5      	beq.n	8000392 <__udivmoddi4+0xa2>
 80003c6:	e9c5 4800 	strd	r4, r8, [r5]
 80003ca:	e7e2      	b.n	8000392 <__udivmoddi4+0xa2>
 80003cc:	2a00      	cmp	r2, #0
 80003ce:	f000 8090 	beq.w	80004f2 <__udivmoddi4+0x202>
 80003d2:	fab2 f682 	clz	r6, r2
 80003d6:	2e00      	cmp	r6, #0
 80003d8:	f040 80a4 	bne.w	8000524 <__udivmoddi4+0x234>
 80003dc:	1a8a      	subs	r2, r1, r2
 80003de:	0c03      	lsrs	r3, r0, #16
 80003e0:	ea4f 4e17 	mov.w	lr, r7, lsr #16
 80003e4:	b280      	uxth	r0, r0
 80003e6:	b2bc      	uxth	r4, r7
 80003e8:	2101      	movs	r1, #1
 80003ea:	fbb2 fcfe 	udiv	ip, r2, lr
 80003ee:	fb0e 221c 	mls	r2, lr, ip, r2
 80003f2:	ea43 4302 	orr.w	r3, r3, r2, lsl #16
 80003f6:	fb04 f20c 	mul.w	r2, r4, ip
 80003fa:	429a      	cmp	r2, r3
 80003fc:	d907      	bls.n	800040e <__udivmoddi4+0x11e>
 80003fe:	18fb      	adds	r3, r7, r3
 8000400:	f10c 38ff 	add.w	r8, ip, #4294967295	@ 0xffffffff
 8000404:	d202      	bcs.n	800040c <__udivmoddi4+0x11c>
 8000406:	429a      	cmp	r2, r3
 8000408:	f200 80e0 	bhi.w	80005cc <__udivmoddi4+0x2dc>
 800040c:	46c4      	mov	ip, r8
 800040e:	1a9b      	subs	r3, r3, r2
 8000410:	fbb3 f2fe 	udiv	r2, r3, lr
 8000414:	fb0e 3312 	mls	r3, lr, r2, r3
 8000418:	ea40 4303 	orr.w	r3, r0, r3, lsl #16
 800041c:	fb02 f404 	mul.w	r4, r2, r4
 8000420:	429c      	cmp	r4, r3
 8000422:	d907      	bls.n	8000434 <__udivmoddi4+0x144>
 8000424:	18fb      	adds	r3, r7, r3
 8000426:	f102 30ff 	add.w	r0, r2, #4294967295	@ 0xffffffff
 800042a:	d202      	bcs.n	8000432 <__udivmoddi4+0x142>
 800042c:	429c      	cmp	r4, r3
 800042e:	f200 80ca 	bhi.w	80005c6 <__udivmoddi4+0x2d6>
 8000432:	4602      	mov	r2, r0
 8000434:	1b1b      	subs	r3, r3, r4
 8000436:	ea42 400c 	orr.w	r0, r2, ip, lsl #16
 800043a:	e7a5      	b.n	8000388 <__udivmoddi4+0x98>
 800043c:	f1c1 0620 	rsb	r6, r1, #32
 8000440:	408b      	lsls	r3, r1
 8000442:	fa22 f706 	lsr.w	r7, r2, r6
 8000446:	431f      	orrs	r7, r3
 8000448:	fa0e f401 	lsl.w	r4, lr, r1
 800044c:	fa20 f306 	lsr.w	r3, r0, r6
 8000450:	fa2e fe06 	lsr.w	lr, lr, r6
 8000454:	ea4f 4917 	mov.w	r9, r7, lsr #16
 8000458:	4323      	orrs	r3, r4
 800045a:	fa00 f801 	lsl.w	r8, r0, r1
 800045e:	fa1f fc87 	uxth.w	ip, r7
 8000462:	fbbe f0f9 	udiv	r0, lr, r9
 8000466:	0c1c      	lsrs	r4, r3, #16
 8000468:	fb09 ee10 	mls	lr, r9, r0, lr
 800046c:	ea44 440e 	orr.w	r4, r4, lr, lsl #16
 8000470:	fb00 fe0c 	mul.w	lr, r0, ip
 8000474:	45a6      	cmp	lr, r4
 8000476:	fa02 f201 	lsl.w	r2, r2, r1
 800047a:	d909      	bls.n	8000490 <__udivmoddi4+0x1a0>
 800047c:	193c      	adds	r4, r7, r4
 800047e:	f100 3aff 	add.w	sl, r0, #4294967295	@ 0xffffffff
 8000482:	f080 809c 	bcs.w	80005be <__udivmoddi4+0x2ce>
 8000486:	45a6      	cmp	lr, r4
 8000488:	f240 8099 	bls.w	80005be <__udivmoddi4+0x2ce>
 800048c:	3802      	subs	r0, #2
 800048e:	443c      	add	r4, r7
 8000490:	eba4 040e 	sub.w	r4, r4, lr
 8000494:	fa1f fe83 	uxth.w	lr, r3
 8000498:	fbb4 f3f9 	udiv	r3, r4, r9
 800049c:	fb09 4413 	mls	r4, r9, r3, r4
 80004a0:	ea4e 4404 	orr.w	r4, lr, r4, lsl #16
 80004a4:	fb03 fc0c 	mul.w	ip, r3, ip
 80004a8:	45a4      	cmp	ip, r4
 80004aa:	d908      	bls.n	80004be <__udivmoddi4+0x1ce>
 80004ac:	193c      	adds	r4, r7, r4
 80004ae:	f103 3eff 	add.w	lr, r3, #4294967295	@ 0xffffffff
 80004b2:	f080 8082 	bcs.w	80005ba <__udivmoddi4+0x2ca>
 80004b6:	45a4      	cmp	ip, r4
 80004b8:	d97f      	bls.n	80005ba <__udivmoddi4+0x2ca>
 80004ba:	3b02      	subs	r3, #2
 80004bc:	443c      	add	r4, r7
 80004be:	ea43 4000 	orr.w	r0, r3, r0, lsl #16
 80004c2:	eba4 040c 	sub.w	r4, r4, ip
 80004c6:	fba0 ec02 	umull	lr, ip, r0, r2
 80004ca:	4564      	cmp	r4, ip
 80004cc:	4673      	mov	r3, lr
 80004ce:	46e1      	mov	r9, ip
 80004d0:	d362      	bcc.n	8000598 <__udivmoddi4+0x2a8>
 80004d2:	d05f      	beq.n	8000594 <__udivmoddi4+0x2a4>
 80004d4:	b15d      	cbz	r5, 80004ee <__udivmoddi4+0x1fe>
 80004d6:	ebb8 0203 	subs.w	r2, r8, r3
 80004da:	eb64 0409 	sbc.w	r4, r4, r9
 80004de:	fa04 f606 	lsl.w	r6, r4, r6
 80004e2:	fa22 f301 	lsr.w	r3, r2, r1
 80004e6:	431e      	orrs	r6, r3
 80004e8:	40cc      	lsrs	r4, r1
 80004ea:	e9c5 6400 	strd	r6, r4, [r5]
 80004ee:	2100      	movs	r1, #0
 80004f0:	e74f      	b.n	8000392 <__udivmoddi4+0xa2>
 80004f2:	fbb1 fcf2 	udiv	ip, r1, r2
 80004f6:	0c01      	lsrs	r1, r0, #16
 80004f8:	ea41 410e 	orr.w	r1, r1, lr, lsl #16
 80004fc:	b280      	uxth	r0, r0
 80004fe:	ea40 4201 	orr.w	r2, r0, r1, lsl #16
 8000502:	463b      	mov	r3, r7
 8000504:	4638      	mov	r0, r7
 8000506:	463c      	mov	r4, r7
 8000508:	46b8      	mov	r8, r7
 800050a:	46be      	mov	lr, r7
 800050c:	2620      	movs	r6, #32
 800050e:	fbb1 f1f7 	udiv	r1, r1, r7
 8000512:	eba2 0208 	sub.w	r2, r2, r8
 8000516:	ea41 410c 	orr.w	r1, r1, ip, lsl #16
 800051a:	e766      	b.n	80003ea <__udivmoddi4+0xfa>
 800051c:	4601      	mov	r1, r0
 800051e:	e718      	b.n	8000352 <__udivmoddi4+0x62>
 8000520:	4610      	mov	r0, r2
 8000522:	e72c      	b.n	800037e <__udivmoddi4+0x8e>
 8000524:	f1c6 0220 	rsb	r2, r6, #32
 8000528:	fa2e f302 	lsr.w	r3, lr, r2
 800052c:	40b7      	lsls	r7, r6
 800052e:	40b1      	lsls	r1, r6
 8000530:	fa20 f202 	lsr.w	r2, r0, r2
 8000534:	ea4f 4e17 	mov.w	lr, r7, lsr #16
 8000538:	430a      	orrs	r2, r1
 800053a:	fbb3 f8fe 	udiv	r8, r3, lr
 800053e:	b2bc      	uxth	r4, r7
 8000540:	fb0e 3318 	mls	r3, lr, r8, r3
 8000544:	0c11      	lsrs	r1, r2, #16
 8000546:	ea41 4103 	orr.w	r1, r1, r3, lsl #16
 800054a:	fb08 f904 	mul.w	r9, r8, r4
 800054e:	40b0      	lsls	r0, r6
 8000550:	4589      	cmp	r9, r1
 8000552:	ea4f 4310 	mov.w	r3, r0, lsr #16
 8000556:	b280      	uxth	r0, r0
 8000558:	d93e      	bls.n	80005d8 <__udivmoddi4+0x2e8>
 800055a:	1879      	adds	r1, r7, r1
 800055c:	f108 3cff 	add.w	ip, r8, #4294967295	@ 0xffffffff
 8000560:	d201      	bcs.n	8000566 <__udivmoddi4+0x276>
 8000562:	4589      	cmp	r9, r1
 8000564:	d81f      	bhi.n	80005a6 <__udivmoddi4+0x2b6>
 8000566:	eba1 0109 	sub.w	r1, r1, r9
 800056a:	fbb1 f9fe 	udiv	r9, r1, lr
 800056e:	fb09 f804 	mul.w	r8, r9, r4
 8000572:	fb0e 1119 	mls	r1, lr, r9, r1
 8000576:	b292      	uxth	r2, r2
 8000578:	ea42 4201 	orr.w	r2, r2, r1, lsl #16
 800057c:	4542      	cmp	r2, r8
 800057e:	d229      	bcs.n	80005d4 <__udivmoddi4+0x2e4>
 8000580:	18ba      	adds	r2, r7, r2
 8000582:	f109 31ff 	add.w	r1, r9, #4294967295	@ 0xffffffff
 8000586:	d2c4      	bcs.n	8000512 <__udivmoddi4+0x222>
 8000588:	4542      	cmp	r2, r8
 800058a:	d2c2      	bcs.n	8000512 <__udivmoddi4+0x222>
 800058c:	f1a9 0102 	sub.w	r1, r9, #2
 8000590:	443a      	add	r2, r7
 8000592:	e7be      	b.n	8000512 <__udivmoddi4+0x222>
 8000594:	45f0      	cmp	r8, lr
 8000596:	d29d      	bcs.n	80004d4 <__udivmoddi4+0x1e4>
 8000598:	ebbe 0302 	subs.w	r3, lr, r2
 800059c:	eb6c 0c07 	sbc.w	ip, ip, r7
 80005a0:	3801      	subs	r0, #1
 80005a2:	46e1      	mov	r9, ip
 80005a4:	e796      	b.n	80004d4 <__udivmoddi4+0x1e4>
 80005a6:	eba7 0909 	sub.w	r9, r7, r9
 80005aa:	4449      	add	r1, r9
 80005ac:	f1a8 0c02 	sub.w	ip, r8, #2
 80005b0:	fbb1 f9fe 	udiv	r9, r1, lr
 80005b4:	fb09 f804 	mul.w	r8, r9, r4
 80005b8:	e7db      	b.n	8000572 <__udivmoddi4+0x282>
 80005ba:	4673      	mov	r3, lr
 80005bc:	e77f      	b.n	80004be <__udivmoddi4+0x1ce>
 80005be:	4650      	mov	r0, sl
 80005c0:	e766      	b.n	8000490 <__udivmoddi4+0x1a0>
 80005c2:	4608      	mov	r0, r1
 80005c4:	e6fd      	b.n	80003c2 <__udivmoddi4+0xd2>
 80005c6:	443b      	add	r3, r7
 80005c8:	3a02      	subs	r2, #2
 80005ca:	e733      	b.n	8000434 <__udivmoddi4+0x144>
 80005cc:	f1ac 0c02 	sub.w	ip, ip, #2
 80005d0:	443b      	add	r3, r7
 80005d2:	e71c      	b.n	800040e <__udivmoddi4+0x11e>
 80005d4:	4649      	mov	r1, r9
 80005d6:	e79c      	b.n	8000512 <__udivmoddi4+0x222>
 80005d8:	eba1 0109 	sub.w	r1, r1, r9
 80005dc:	46c4      	mov	ip, r8
 80005de:	fbb1 f9fe 	udiv	r9, r1, lr
 80005e2:	fb09 f804 	mul.w	r8, r9, r4
 80005e6:	e7c4      	b.n	8000572 <__udivmoddi4+0x282>

080005e8 <__aeabi_idiv0>:
 80005e8:	4770      	bx	lr
 80005ea:	bf00      	nop

080005ec <DisplayConfigCustomChars>:

uint8_t arrows[]={0x00,0x04,0x0e,0x15,0x04,0x04,0x00,0x00
                  ,0x00,0x04,0x04,0x15,0x0e,0x04,0x00,0x00};


void DisplayConfigCustomChars(void){
 80005ec:	b580      	push	{r7, lr}
 80005ee:	af00      	add	r7, sp, #0
  lcd_set_custom_symbol(arrows,2);
 80005f0:	2102      	movs	r1, #2
 80005f2:	4802      	ldr	r0, [pc, #8]	@ (80005fc <DisplayConfigCustomChars+0x10>)
 80005f4:	f000 fbe0 	bl	8000db8 <lcd_set_custom_symbol>
}
 80005f8:	bf00      	nop
 80005fa:	bd80      	pop	{r7, pc}
 80005fc:	20000000 	.word	0x20000000

08000600 <ClearStratagemOnDisplay>:

void ClearStratagemOnDisplay(void){
 8000600:	b580      	push	{r7, lr}
 8000602:	af00      	add	r7, sp, #0
  lcd_update_buffer("        ", MAX_STRATAGEM_SIZE, 20+STRATAGEM_COL_START);
 8000604:	221a      	movs	r2, #26
 8000606:	2108      	movs	r1, #8
 8000608:	4802      	ldr	r0, [pc, #8]	@ (8000614 <ClearStratagemOnDisplay+0x14>)
 800060a:	f000 fb87 	bl	8000d1c <lcd_update_buffer>
}
 800060e:	bf00      	nop
 8000610:	bd80      	pop	{r7, pc}
 8000612:	bf00      	nop
 8000614:	08004ac4 	.word	0x08004ac4

08000618 <DisplayNextSequenceArrow>:

void DisplayNextSequenceArrow(uint8_t arrow,uint8_t number){
 8000618:	b580      	push	{r7, lr}
 800061a:	b082      	sub	sp, #8
 800061c:	af00      	add	r7, sp, #0
 800061e:	4603      	mov	r3, r0
 8000620:	460a      	mov	r2, r1
 8000622:	71fb      	strb	r3, [r7, #7]
 8000624:	4613      	mov	r3, r2
 8000626:	71bb      	strb	r3, [r7, #6]
  lcd_update_buffer(&arrow,1,20+STRATAGEM_COL_START+number);
 8000628:	79bb      	ldrb	r3, [r7, #6]
 800062a:	331a      	adds	r3, #26
 800062c:	b2da      	uxtb	r2, r3
 800062e:	1dfb      	adds	r3, r7, #7
 8000630:	2101      	movs	r1, #1
 8000632:	4618      	mov	r0, r3
 8000634:	f000 fb72 	bl	8000d1c <lcd_update_buffer>
}
 8000638:	bf00      	nop
 800063a:	3708      	adds	r7, #8
 800063c:	46bd      	mov	sp, r7
 800063e:	bd80      	pop	{r7, pc}

08000640 <DisplayWaitForStartScreen>:

void DisplayWaitForStartScreen(void){
 8000640:	b580      	push	{r7, lr}
 8000642:	af00      	add	r7, sp, #0
  lcd_clear_buffer();
 8000644:	f000 fb80 	bl	8000d48 <lcd_clear_buffer>
  lcd_update_buffer("  Press any button  ",20,0);
 8000648:	2200      	movs	r2, #0
 800064a:	2114      	movs	r1, #20
 800064c:	4804      	ldr	r0, [pc, #16]	@ (8000660 <DisplayWaitForStartScreen+0x20>)
 800064e:	f000 fb65 	bl	8000d1c <lcd_update_buffer>
  lcd_update_buffer("  to start the game ",20,20);
 8000652:	2214      	movs	r2, #20
 8000654:	2114      	movs	r1, #20
 8000656:	4803      	ldr	r0, [pc, #12]	@ (8000664 <DisplayWaitForStartScreen+0x24>)
 8000658:	f000 fb60 	bl	8000d1c <lcd_update_buffer>
}
 800065c:	bf00      	nop
 800065e:	bd80      	pop	{r7, pc}
 8000660:	08004ad0 	.word	0x08004ad0
 8000664:	08004ae8 	.word	0x08004ae8

08000668 <DisplayStartCountDownScreen>:

void DisplayStartCountDownScreen(uint8_t time_s){
 8000668:	b580      	push	{r7, lr}
 800066a:	b084      	sub	sp, #16
 800066c:	af00      	add	r7, sp, #0
 800066e:	4603      	mov	r3, r0
 8000670:	71fb      	strb	r3, [r7, #7]
  lcd_clear_buffer();
 8000672:	f000 fb69 	bl	8000d48 <lcd_clear_buffer>
  lcd_update_buffer("  Starting game in  ",20,0);
 8000676:	2200      	movs	r2, #0
 8000678:	2114      	movs	r1, #20
 800067a:	480a      	ldr	r0, [pc, #40]	@ (80006a4 <DisplayStartCountDownScreen+0x3c>)
 800067c:	f000 fb4e 	bl	8000d1c <lcd_update_buffer>
  uint8_t buf[6];
  sprintf(buf,"%d ...",time_s);
 8000680:	79fa      	ldrb	r2, [r7, #7]
 8000682:	f107 0308 	add.w	r3, r7, #8
 8000686:	4908      	ldr	r1, [pc, #32]	@ (80006a8 <DisplayStartCountDownScreen+0x40>)
 8000688:	4618      	mov	r0, r3
 800068a:	f003 fd6f 	bl	800416c <siprintf>
  lcd_update_buffer(buf,6,26);
 800068e:	f107 0308 	add.w	r3, r7, #8
 8000692:	221a      	movs	r2, #26
 8000694:	2106      	movs	r1, #6
 8000696:	4618      	mov	r0, r3
 8000698:	f000 fb40 	bl	8000d1c <lcd_update_buffer>
}
 800069c:	bf00      	nop
 800069e:	3710      	adds	r7, #16
 80006a0:	46bd      	mov	sp, r7
 80006a2:	bd80      	pop	{r7, pc}
 80006a4:	08004b00 	.word	0x08004b00
 80006a8:	08004b18 	.word	0x08004b18

080006ac <DisplayAfterRoundInfo>:

void DisplayAfterRoundInfo(uint8_t time_left,uint16_t points){
 80006ac:	b580      	push	{r7, lr}
 80006ae:	b088      	sub	sp, #32
 80006b0:	af00      	add	r7, sp, #0
 80006b2:	4603      	mov	r3, r0
 80006b4:	460a      	mov	r2, r1
 80006b6:	71fb      	strb	r3, [r7, #7]
 80006b8:	4613      	mov	r3, r2
 80006ba:	80bb      	strh	r3, [r7, #4]
  lcd_clear_buffer();
 80006bc:	f000 fb44 	bl	8000d48 <lcd_clear_buffer>
  lcd_update_buffer("   Round Complete   ",20,0);
 80006c0:	2200      	movs	r2, #0
 80006c2:	2114      	movs	r1, #20
 80006c4:	4808      	ldr	r0, [pc, #32]	@ (80006e8 <DisplayAfterRoundInfo+0x3c>)
 80006c6:	f000 fb29 	bl	8000d1c <lcd_update_buffer>
  uint8_t buf[20];
 // sprintf(buf,"  your score: %d",points);
  //lcd_update_buffer(buf,20,20);
  lcd_update_buffer("  Press any button  ",20,40);
 80006ca:	2228      	movs	r2, #40	@ 0x28
 80006cc:	2114      	movs	r1, #20
 80006ce:	4807      	ldr	r0, [pc, #28]	@ (80006ec <DisplayAfterRoundInfo+0x40>)
 80006d0:	f000 fb24 	bl	8000d1c <lcd_update_buffer>
  lcd_update_buffer("     to continue    ",20,60);
 80006d4:	223c      	movs	r2, #60	@ 0x3c
 80006d6:	2114      	movs	r1, #20
 80006d8:	4805      	ldr	r0, [pc, #20]	@ (80006f0 <DisplayAfterRoundInfo+0x44>)
 80006da:	f000 fb1f 	bl	8000d1c <lcd_update_buffer>
}
 80006de:	bf00      	nop
 80006e0:	3720      	adds	r7, #32
 80006e2:	46bd      	mov	sp, r7
 80006e4:	bd80      	pop	{r7, pc}
 80006e6:	bf00      	nop
 80006e8:	08004b20 	.word	0x08004b20
 80006ec:	08004ad0 	.word	0x08004ad0
 80006f0:	08004b38 	.word	0x08004b38

080006f4 <DisplayFinalRoundInfo>:

void DisplayFinalRoundInfo(uint16_t points){
 80006f4:	b580      	push	{r7, lr}
 80006f6:	b088      	sub	sp, #32
 80006f8:	af00      	add	r7, sp, #0
 80006fa:	4603      	mov	r3, r0
 80006fc:	80fb      	strh	r3, [r7, #6]
  lcd_clear_buffer();
 80006fe:	f000 fb23 	bl	8000d48 <lcd_clear_buffer>
  lcd_update_buffer("    Game Complete   ",20,0);
 8000702:	2200      	movs	r2, #0
 8000704:	2114      	movs	r1, #20
 8000706:	4808      	ldr	r0, [pc, #32]	@ (8000728 <DisplayFinalRoundInfo+0x34>)
 8000708:	f000 fb08 	bl	8000d1c <lcd_update_buffer>
  uint8_t buf[20];
  //sprintf(buf,"  your score: %d     ",points);
  //lcd_update_buffer(buf,20,20);
  lcd_update_buffer("  Press any button  ",20,40);
 800070c:	2228      	movs	r2, #40	@ 0x28
 800070e:	2114      	movs	r1, #20
 8000710:	4806      	ldr	r0, [pc, #24]	@ (800072c <DisplayFinalRoundInfo+0x38>)
 8000712:	f000 fb03 	bl	8000d1c <lcd_update_buffer>
  lcd_update_buffer("     to restart     ",20,60);
 8000716:	223c      	movs	r2, #60	@ 0x3c
 8000718:	2114      	movs	r1, #20
 800071a:	4805      	ldr	r0, [pc, #20]	@ (8000730 <DisplayFinalRoundInfo+0x3c>)
 800071c:	f000 fafe 	bl	8000d1c <lcd_update_buffer>
}
 8000720:	bf00      	nop
 8000722:	3720      	adds	r7, #32
 8000724:	46bd      	mov	sp, r7
 8000726:	bd80      	pop	{r7, pc}
 8000728:	08004b50 	.word	0x08004b50
 800072c:	08004ad0 	.word	0x08004ad0
 8000730:	08004b68 	.word	0x08004b68

08000734 <PlaceEventInQueue>:
TimeoutDataStruct IdleTimeout={.timeout_type=IDLE_TIMEOUT,.timespan=20000,.is_active=0};
TimeoutDataStruct * Timeouts[]={&CtdownTimeout,&GameTimeout,&IdleTimeout};



void PlaceEventInQueue(GameEvents event){
 8000734:	b480      	push	{r7}
 8000736:	b083      	sub	sp, #12
 8000738:	af00      	add	r7, sp, #0
 800073a:	4603      	mov	r3, r0
 800073c:	71fb      	strb	r3, [r7, #7]
//  if(event_tail!=event_head){
    event_queue[event_head]=event;
 800073e:	4b0d      	ldr	r3, [pc, #52]	@ (8000774 <PlaceEventInQueue+0x40>)
 8000740:	781b      	ldrb	r3, [r3, #0]
 8000742:	4619      	mov	r1, r3
 8000744:	4a0c      	ldr	r2, [pc, #48]	@ (8000778 <PlaceEventInQueue+0x44>)
 8000746:	79fb      	ldrb	r3, [r7, #7]
 8000748:	5453      	strb	r3, [r2, r1]
    if(event_head!=10)
 800074a:	4b0a      	ldr	r3, [pc, #40]	@ (8000774 <PlaceEventInQueue+0x40>)
 800074c:	781b      	ldrb	r3, [r3, #0]
 800074e:	2b0a      	cmp	r3, #10
 8000750:	d006      	beq.n	8000760 <PlaceEventInQueue+0x2c>
      event_head++;
 8000752:	4b08      	ldr	r3, [pc, #32]	@ (8000774 <PlaceEventInQueue+0x40>)
 8000754:	781b      	ldrb	r3, [r3, #0]
 8000756:	3301      	adds	r3, #1
 8000758:	b2da      	uxtb	r2, r3
 800075a:	4b06      	ldr	r3, [pc, #24]	@ (8000774 <PlaceEventInQueue+0x40>)
 800075c:	701a      	strb	r2, [r3, #0]
    else
      event_head=0;
//  }
}
 800075e:	e002      	b.n	8000766 <PlaceEventInQueue+0x32>
      event_head=0;
 8000760:	4b04      	ldr	r3, [pc, #16]	@ (8000774 <PlaceEventInQueue+0x40>)
 8000762:	2200      	movs	r2, #0
 8000764:	701a      	strb	r2, [r3, #0]
}
 8000766:	bf00      	nop
 8000768:	370c      	adds	r7, #12
 800076a:	46bd      	mov	sp, r7
 800076c:	f85d 7b04 	ldr.w	r7, [sp], #4
 8000770:	4770      	bx	lr
 8000772:	bf00      	nop
 8000774:	200000c7 	.word	0x200000c7
 8000778:	200000bc 	.word	0x200000bc

0800077c <GetLastEvent>:

GameEvents GetLastEvent(void){
 800077c:	b480      	push	{r7}
 800077e:	b083      	sub	sp, #12
 8000780:	af00      	add	r7, sp, #0
  if(event_tail!=event_head){
 8000782:	4b11      	ldr	r3, [pc, #68]	@ (80007c8 <GetLastEvent+0x4c>)
 8000784:	781a      	ldrb	r2, [r3, #0]
 8000786:	4b11      	ldr	r3, [pc, #68]	@ (80007cc <GetLastEvent+0x50>)
 8000788:	781b      	ldrb	r3, [r3, #0]
 800078a:	429a      	cmp	r2, r3
 800078c:	d015      	beq.n	80007ba <GetLastEvent+0x3e>
    GameEvents return_event=event_queue[event_tail];
 800078e:	4b0e      	ldr	r3, [pc, #56]	@ (80007c8 <GetLastEvent+0x4c>)
 8000790:	781b      	ldrb	r3, [r3, #0]
 8000792:	461a      	mov	r2, r3
 8000794:	4b0e      	ldr	r3, [pc, #56]	@ (80007d0 <GetLastEvent+0x54>)
 8000796:	5c9b      	ldrb	r3, [r3, r2]
 8000798:	71fb      	strb	r3, [r7, #7]
    if(event_tail!=10)
 800079a:	4b0b      	ldr	r3, [pc, #44]	@ (80007c8 <GetLastEvent+0x4c>)
 800079c:	781b      	ldrb	r3, [r3, #0]
 800079e:	2b0a      	cmp	r3, #10
 80007a0:	d006      	beq.n	80007b0 <GetLastEvent+0x34>
      event_tail++;
 80007a2:	4b09      	ldr	r3, [pc, #36]	@ (80007c8 <GetLastEvent+0x4c>)
 80007a4:	781b      	ldrb	r3, [r3, #0]
 80007a6:	3301      	adds	r3, #1
 80007a8:	b2da      	uxtb	r2, r3
 80007aa:	4b07      	ldr	r3, [pc, #28]	@ (80007c8 <GetLastEvent+0x4c>)
 80007ac:	701a      	strb	r2, [r3, #0]
 80007ae:	e002      	b.n	80007b6 <GetLastEvent+0x3a>
    else
      event_tail=0;
 80007b0:	4b05      	ldr	r3, [pc, #20]	@ (80007c8 <GetLastEvent+0x4c>)
 80007b2:	2200      	movs	r2, #0
 80007b4:	701a      	strb	r2, [r3, #0]
    return return_event;
 80007b6:	79fb      	ldrb	r3, [r7, #7]
 80007b8:	e000      	b.n	80007bc <GetLastEvent+0x40>
  }
  else
    return NO_EVENT;
 80007ba:	2300      	movs	r3, #0
}
 80007bc:	4618      	mov	r0, r3
 80007be:	370c      	adds	r7, #12
 80007c0:	46bd      	mov	sp, r7
 80007c2:	f85d 7b04 	ldr.w	r7, [sp], #4
 80007c6:	4770      	bx	lr
 80007c8:	200000c6 	.word	0x200000c6
 80007cc:	200000c7 	.word	0x200000c7
 80007d0:	200000bc 	.word	0x200000bc

080007d4 <AppStateProcessor>:

void AppStateProcessor(void){
 80007d4:	b580      	push	{r7, lr}
 80007d6:	b082      	sub	sp, #8
 80007d8:	af00      	add	r7, sp, #0
  //get last event from queue
  GameEvents last_event=GetLastEvent();
 80007da:	f7ff ffcf 	bl	800077c <GetLastEvent>
 80007de:	4603      	mov	r3, r0
 80007e0:	71fb      	strb	r3, [r7, #7]
  switch(AppStateMachine){
 80007e2:	4b1b      	ldr	r3, [pc, #108]	@ (8000850 <AppStateProcessor+0x7c>)
 80007e4:	781b      	ldrb	r3, [r3, #0]
 80007e6:	2b02      	cmp	r3, #2
 80007e8:	d017      	beq.n	800081a <AppStateProcessor+0x46>
 80007ea:	2b02      	cmp	r3, #2
 80007ec:	dc2b      	bgt.n	8000846 <AppStateProcessor+0x72>
 80007ee:	2b00      	cmp	r3, #0
 80007f0:	d002      	beq.n	80007f8 <AppStateProcessor+0x24>
 80007f2:	2b01      	cmp	r3, #1
 80007f4:	d00c      	beq.n	8000810 <AppStateProcessor+0x3c>
        GameSubStateMachine=START_COUNTDOWN;
        AppStateMachine=GAME_IS_ACTIVE;
      }
      break;
  }
}
 80007f6:	e026      	b.n	8000846 <AppStateProcessor+0x72>
      DisplayWaitForStartScreen();
 80007f8:	f7ff ff22 	bl	8000640 <DisplayWaitForStartScreen>
      if(last_event==ANY_BUTTON_PRESSED){
 80007fc:	79fb      	ldrb	r3, [r7, #7]
 80007fe:	2b01      	cmp	r3, #1
 8000800:	d11e      	bne.n	8000840 <AppStateProcessor+0x6c>
        AppStateMachine=GAME_IS_ACTIVE;
 8000802:	4b13      	ldr	r3, [pc, #76]	@ (8000850 <AppStateProcessor+0x7c>)
 8000804:	2201      	movs	r2, #1
 8000806:	701a      	strb	r2, [r3, #0]
        StartTimeout(CTDOWN_TIMEOUT);
 8000808:	2002      	movs	r0, #2
 800080a:	f000 f901 	bl	8000a10 <StartTimeout>
      break;
 800080e:	e017      	b.n	8000840 <AppStateProcessor+0x6c>
      GameProcessor(last_event);
 8000810:	79fb      	ldrb	r3, [r7, #7]
 8000812:	4618      	mov	r0, r3
 8000814:	f000 f820 	bl	8000858 <GameProcessor>
      break;
 8000818:	e015      	b.n	8000846 <AppStateProcessor+0x72>
      if(last_event==IDLE_TIMEOUT){
 800081a:	79fb      	ldrb	r3, [r7, #7]
 800081c:	2b04      	cmp	r3, #4
 800081e:	d102      	bne.n	8000826 <AppStateProcessor+0x52>
        AppStateMachine=WAIT_FOR_START;
 8000820:	4b0b      	ldr	r3, [pc, #44]	@ (8000850 <AppStateProcessor+0x7c>)
 8000822:	2200      	movs	r2, #0
 8000824:	701a      	strb	r2, [r3, #0]
      if(last_event==ANY_BUTTON_PRESSED){
 8000826:	79fb      	ldrb	r3, [r7, #7]
 8000828:	2b01      	cmp	r3, #1
 800082a:	d10b      	bne.n	8000844 <AppStateProcessor+0x70>
        StartTimeout(CTDOWN_TIMEOUT);
 800082c:	2002      	movs	r0, #2
 800082e:	f000 f8ef 	bl	8000a10 <StartTimeout>
        GameSubStateMachine=START_COUNTDOWN;
 8000832:	4b08      	ldr	r3, [pc, #32]	@ (8000854 <AppStateProcessor+0x80>)
 8000834:	2200      	movs	r2, #0
 8000836:	701a      	strb	r2, [r3, #0]
        AppStateMachine=GAME_IS_ACTIVE;
 8000838:	4b05      	ldr	r3, [pc, #20]	@ (8000850 <AppStateProcessor+0x7c>)
 800083a:	2201      	movs	r2, #1
 800083c:	701a      	strb	r2, [r3, #0]
      break;
 800083e:	e001      	b.n	8000844 <AppStateProcessor+0x70>
      break;
 8000840:	bf00      	nop
 8000842:	e000      	b.n	8000846 <AppStateProcessor+0x72>
      break;
 8000844:	bf00      	nop
}
 8000846:	bf00      	nop
 8000848:	3708      	adds	r7, #8
 800084a:	46bd      	mov	sp, r7
 800084c:	bd80      	pop	{r7, pc}
 800084e:	bf00      	nop
 8000850:	200000c9 	.word	0x200000c9
 8000854:	200000c8 	.word	0x200000c8

08000858 <GameProcessor>:

void GameProcessor(GameEvents last_event){
 8000858:	b590      	push	{r4, r7, lr}
 800085a:	b085      	sub	sp, #20
 800085c:	af00      	add	r7, sp, #0
 800085e:	4603      	mov	r3, r0
 8000860:	71fb      	strb	r3, [r7, #7]
  switch(GameSubStateMachine){
 8000862:	4b66      	ldr	r3, [pc, #408]	@ (80009fc <GameProcessor+0x1a4>)
 8000864:	781b      	ldrb	r3, [r3, #0]
 8000866:	2b02      	cmp	r3, #2
 8000868:	f000 80ad 	beq.w	80009c6 <GameProcessor+0x16e>
 800086c:	2b02      	cmp	r3, #2
 800086e:	f300 80c0 	bgt.w	80009f2 <GameProcessor+0x19a>
 8000872:	2b00      	cmp	r3, #0
 8000874:	d002      	beq.n	800087c <GameProcessor+0x24>
 8000876:	2b01      	cmp	r3, #1
 8000878:	d039      	beq.n	80008ee <GameProcessor+0x96>
      }
      //wait for button - start countdown , start idle
      break;
  }

}
 800087a:	e0ba      	b.n	80009f2 <GameProcessor+0x19a>
      if(last_event==CTDOWN_TIMEOUT){
 800087c:	79fb      	ldrb	r3, [r7, #7]
 800087e:	2b02      	cmp	r3, #2
 8000880:	d11f      	bne.n	80008c2 <GameProcessor+0x6a>
        GameSubStateMachine=ACTIVE_ROUND;
 8000882:	4b5e      	ldr	r3, [pc, #376]	@ (80009fc <GameProcessor+0x1a4>)
 8000884:	2201      	movs	r2, #1
 8000886:	701a      	strb	r2, [r3, #0]
        StartTimeout(GAME_TIMEOUT);
 8000888:	2003      	movs	r0, #3
 800088a:	f000 f8c1 	bl	8000a10 <StartTimeout>
        GameData.sequence_cursor=0;
 800088e:	4b5c      	ldr	r3, [pc, #368]	@ (8000a00 <GameProcessor+0x1a8>)
 8000890:	2200      	movs	r2, #0
 8000892:	705a      	strb	r2, [r3, #1]
        GameData.sequence_array_cursor=0;
 8000894:	4b5a      	ldr	r3, [pc, #360]	@ (8000a00 <GameProcessor+0x1a8>)
 8000896:	2200      	movs	r2, #0
 8000898:	701a      	strb	r2, [r3, #0]
        GameData.stratagems[0].sequence=0x111;
 800089a:	4b59      	ldr	r3, [pc, #356]	@ (8000a00 <GameProcessor+0x1a8>)
 800089c:	f240 1211 	movw	r2, #273	@ 0x111
 80008a0:	609a      	str	r2, [r3, #8]
        GameData.stratagems[1].sequence=0x222;
 80008a2:	4b57      	ldr	r3, [pc, #348]	@ (8000a00 <GameProcessor+0x1a8>)
 80008a4:	f240 2222 	movw	r2, #546	@ 0x222
 80008a8:	60da      	str	r2, [r3, #12]
        GameData.stratagems[2].sequence=0x444;
 80008aa:	4b55      	ldr	r3, [pc, #340]	@ (8000a00 <GameProcessor+0x1a8>)
 80008ac:	f240 4244 	movw	r2, #1092	@ 0x444
 80008b0:	611a      	str	r2, [r3, #16]
        GameData.stratagems[3].sequence=0x888;
 80008b2:	4b53      	ldr	r3, [pc, #332]	@ (8000a00 <GameProcessor+0x1a8>)
 80008b4:	f640 0288 	movw	r2, #2184	@ 0x888
 80008b8:	615a      	str	r2, [r3, #20]
        GameData.stratagems[4].sequence=0x111;
 80008ba:	4b51      	ldr	r3, [pc, #324]	@ (8000a00 <GameProcessor+0x1a8>)
 80008bc:	f240 1211 	movw	r2, #273	@ 0x111
 80008c0:	619a      	str	r2, [r3, #24]
      DisplayStartCountDownScreen(1+(((Timeouts[0]->timespan+Timeouts[0]->start_timestamp-HAL_GetTick()))/1000));
 80008c2:	4b50      	ldr	r3, [pc, #320]	@ (8000a04 <GameProcessor+0x1ac>)
 80008c4:	681b      	ldr	r3, [r3, #0]
 80008c6:	689a      	ldr	r2, [r3, #8]
 80008c8:	4b4e      	ldr	r3, [pc, #312]	@ (8000a04 <GameProcessor+0x1ac>)
 80008ca:	681b      	ldr	r3, [r3, #0]
 80008cc:	685b      	ldr	r3, [r3, #4]
 80008ce:	18d4      	adds	r4, r2, r3
 80008d0:	f000 fe9c 	bl	800160c <HAL_GetTick>
 80008d4:	4603      	mov	r3, r0
 80008d6:	1ae3      	subs	r3, r4, r3
 80008d8:	4a4b      	ldr	r2, [pc, #300]	@ (8000a08 <GameProcessor+0x1b0>)
 80008da:	fba2 2303 	umull	r2, r3, r2, r3
 80008de:	099b      	lsrs	r3, r3, #6
 80008e0:	b2db      	uxtb	r3, r3
 80008e2:	3301      	adds	r3, #1
 80008e4:	b2db      	uxtb	r3, r3
 80008e6:	4618      	mov	r0, r3
 80008e8:	f7ff febe 	bl	8000668 <DisplayStartCountDownScreen>
      break;
 80008ec:	e081      	b.n	80009f2 <GameProcessor+0x19a>
      if(last_event==ANY_BUTTON_PRESSED){
 80008ee:	79fb      	ldrb	r3, [r7, #7]
 80008f0:	2b01      	cmp	r3, #1
 80008f2:	d158      	bne.n	80009a6 <GameProcessor+0x14e>
        uint8_t result=0;//0x1,0x2,0x4,0x8 only
 80008f4:	2300      	movs	r3, #0
 80008f6:	73fb      	strb	r3, [r7, #15]
        if(result==((GameData.stratagems[GameData.sequence_array_cursor].sequence>>GameData.sequence_cursor)&0xF)){
 80008f8:	7bfa      	ldrb	r2, [r7, #15]
 80008fa:	4b41      	ldr	r3, [pc, #260]	@ (8000a00 <GameProcessor+0x1a8>)
 80008fc:	781b      	ldrb	r3, [r3, #0]
 80008fe:	4940      	ldr	r1, [pc, #256]	@ (8000a00 <GameProcessor+0x1a8>)
 8000900:	3302      	adds	r3, #2
 8000902:	f851 3023 	ldr.w	r3, [r1, r3, lsl #2]
 8000906:	493e      	ldr	r1, [pc, #248]	@ (8000a00 <GameProcessor+0x1a8>)
 8000908:	7849      	ldrb	r1, [r1, #1]
 800090a:	40cb      	lsrs	r3, r1
 800090c:	f003 030f 	and.w	r3, r3, #15
 8000910:	429a      	cmp	r2, r3
 8000912:	d140      	bne.n	8000996 <GameProcessor+0x13e>
          DisplayNextSequenceArrow(result,GameData.sequence_cursor/4);
 8000914:	4b3a      	ldr	r3, [pc, #232]	@ (8000a00 <GameProcessor+0x1a8>)
 8000916:	785b      	ldrb	r3, [r3, #1]
 8000918:	089b      	lsrs	r3, r3, #2
 800091a:	b2da      	uxtb	r2, r3
 800091c:	7bfb      	ldrb	r3, [r7, #15]
 800091e:	4611      	mov	r1, r2
 8000920:	4618      	mov	r0, r3
 8000922:	f7ff fe79 	bl	8000618 <DisplayNextSequenceArrow>
          GameData.input.sequence=result<<GameData.sequence_cursor;
 8000926:	7bfb      	ldrb	r3, [r7, #15]
 8000928:	4a35      	ldr	r2, [pc, #212]	@ (8000a00 <GameProcessor+0x1a8>)
 800092a:	7852      	ldrb	r2, [r2, #1]
 800092c:	4093      	lsls	r3, r2
 800092e:	461a      	mov	r2, r3
 8000930:	4b33      	ldr	r3, [pc, #204]	@ (8000a00 <GameProcessor+0x1a8>)
 8000932:	605a      	str	r2, [r3, #4]
          GameData.sequence_cursor+=4;
 8000934:	4b32      	ldr	r3, [pc, #200]	@ (8000a00 <GameProcessor+0x1a8>)
 8000936:	785b      	ldrb	r3, [r3, #1]
 8000938:	3304      	adds	r3, #4
 800093a:	b2da      	uxtb	r2, r3
 800093c:	4b30      	ldr	r3, [pc, #192]	@ (8000a00 <GameProcessor+0x1a8>)
 800093e:	705a      	strb	r2, [r3, #1]
          if(((GameData.stratagems[GameData.sequence_array_cursor].sequence>>GameData.sequence_cursor)&0xF)==0x00){
 8000940:	4b2f      	ldr	r3, [pc, #188]	@ (8000a00 <GameProcessor+0x1a8>)
 8000942:	781b      	ldrb	r3, [r3, #0]
 8000944:	4a2e      	ldr	r2, [pc, #184]	@ (8000a00 <GameProcessor+0x1a8>)
 8000946:	3302      	adds	r3, #2
 8000948:	f852 3023 	ldr.w	r3, [r2, r3, lsl #2]
 800094c:	4a2c      	ldr	r2, [pc, #176]	@ (8000a00 <GameProcessor+0x1a8>)
 800094e:	7852      	ldrb	r2, [r2, #1]
 8000950:	40d3      	lsrs	r3, r2
 8000952:	f003 030f 	and.w	r3, r3, #15
 8000956:	2b00      	cmp	r3, #0
 8000958:	d125      	bne.n	80009a6 <GameProcessor+0x14e>
            if(GameData.sequence_array_cursor!=STRATAGEM_PER_GAME){
 800095a:	4b29      	ldr	r3, [pc, #164]	@ (8000a00 <GameProcessor+0x1a8>)
 800095c:	781b      	ldrb	r3, [r3, #0]
 800095e:	2b05      	cmp	r3, #5
 8000960:	d00e      	beq.n	8000980 <GameProcessor+0x128>
              GameData.sequence_array_cursor++;   //increment cursor for next stratagem
 8000962:	4b27      	ldr	r3, [pc, #156]	@ (8000a00 <GameProcessor+0x1a8>)
 8000964:	781b      	ldrb	r3, [r3, #0]
 8000966:	3301      	adds	r3, #1
 8000968:	b2da      	uxtb	r2, r3
 800096a:	4b25      	ldr	r3, [pc, #148]	@ (8000a00 <GameProcessor+0x1a8>)
 800096c:	701a      	strb	r2, [r3, #0]
              GameData.sequence_cursor=0;         //clear cursor of each arrow in sequence
 800096e:	4b24      	ldr	r3, [pc, #144]	@ (8000a00 <GameProcessor+0x1a8>)
 8000970:	2200      	movs	r2, #0
 8000972:	705a      	strb	r2, [r3, #1]
              GameData.input.sequence=0;          //clear previous sequence
 8000974:	4b22      	ldr	r3, [pc, #136]	@ (8000a00 <GameProcessor+0x1a8>)
 8000976:	2200      	movs	r2, #0
 8000978:	605a      	str	r2, [r3, #4]
              ClearStratagemOnDisplay();
 800097a:	f7ff fe41 	bl	8000600 <ClearStratagemOnDisplay>
 800097e:	e012      	b.n	80009a6 <GameProcessor+0x14e>
              GameSubStateMachine=ROUND_COMPLETE; //change state
 8000980:	4b1e      	ldr	r3, [pc, #120]	@ (80009fc <GameProcessor+0x1a4>)
 8000982:	2202      	movs	r2, #2
 8000984:	701a      	strb	r2, [r3, #0]
              DisplayAfterRoundInfo(0,0);            //update lcd
 8000986:	2100      	movs	r1, #0
 8000988:	2000      	movs	r0, #0
 800098a:	f7ff fe8f 	bl	80006ac <DisplayAfterRoundInfo>
              StartTimeout(IDLE_TIMEOUT);         //
 800098e:	2004      	movs	r0, #4
 8000990:	f000 f83e 	bl	8000a10 <StartTimeout>
 8000994:	e007      	b.n	80009a6 <GameProcessor+0x14e>
          GameData.input.sequence=0;
 8000996:	4b1a      	ldr	r3, [pc, #104]	@ (8000a00 <GameProcessor+0x1a8>)
 8000998:	2200      	movs	r2, #0
 800099a:	605a      	str	r2, [r3, #4]
          GameData.sequence_cursor=0;
 800099c:	4b18      	ldr	r3, [pc, #96]	@ (8000a00 <GameProcessor+0x1a8>)
 800099e:	2200      	movs	r2, #0
 80009a0:	705a      	strb	r2, [r3, #1]
          ClearStratagemOnDisplay();
 80009a2:	f7ff fe2d 	bl	8000600 <ClearStratagemOnDisplay>
      if(last_event==GAME_TIMEOUT){
 80009a6:	79fb      	ldrb	r3, [r7, #7]
 80009a8:	2b03      	cmp	r3, #3
 80009aa:	d11f      	bne.n	80009ec <GameProcessor+0x194>
        StartTimeout(IDLE_TIMEOUT);
 80009ac:	2004      	movs	r0, #4
 80009ae:	f000 f82f 	bl	8000a10 <StartTimeout>
        DisplayFinalRoundInfo(0);
 80009b2:	2000      	movs	r0, #0
 80009b4:	f7ff fe9e 	bl	80006f4 <DisplayFinalRoundInfo>
        GameSubStateMachine=START_COUNTDOWN;
 80009b8:	4b10      	ldr	r3, [pc, #64]	@ (80009fc <GameProcessor+0x1a4>)
 80009ba:	2200      	movs	r2, #0
 80009bc:	701a      	strb	r2, [r3, #0]
        AppStateMachine=GAME_ENDED;
 80009be:	4b13      	ldr	r3, [pc, #76]	@ (8000a0c <GameProcessor+0x1b4>)
 80009c0:	2202      	movs	r2, #2
 80009c2:	701a      	strb	r2, [r3, #0]
      break;
 80009c4:	e012      	b.n	80009ec <GameProcessor+0x194>
      if(last_event==IDLE_TIMEOUT){
 80009c6:	79fb      	ldrb	r3, [r7, #7]
 80009c8:	2b04      	cmp	r3, #4
 80009ca:	d105      	bne.n	80009d8 <GameProcessor+0x180>
        GameSubStateMachine=START_COUNTDOWN;
 80009cc:	4b0b      	ldr	r3, [pc, #44]	@ (80009fc <GameProcessor+0x1a4>)
 80009ce:	2200      	movs	r2, #0
 80009d0:	701a      	strb	r2, [r3, #0]
        AppStateMachine=WAIT_FOR_START;
 80009d2:	4b0e      	ldr	r3, [pc, #56]	@ (8000a0c <GameProcessor+0x1b4>)
 80009d4:	2200      	movs	r2, #0
 80009d6:	701a      	strb	r2, [r3, #0]
      if(last_event==ANY_BUTTON_PRESSED){
 80009d8:	79fb      	ldrb	r3, [r7, #7]
 80009da:	2b01      	cmp	r3, #1
 80009dc:	d108      	bne.n	80009f0 <GameProcessor+0x198>
        StartTimeout(CTDOWN_TIMEOUT);
 80009de:	2002      	movs	r0, #2
 80009e0:	f000 f816 	bl	8000a10 <StartTimeout>
        GameSubStateMachine=START_COUNTDOWN;
 80009e4:	4b05      	ldr	r3, [pc, #20]	@ (80009fc <GameProcessor+0x1a4>)
 80009e6:	2200      	movs	r2, #0
 80009e8:	701a      	strb	r2, [r3, #0]
      break;
 80009ea:	e001      	b.n	80009f0 <GameProcessor+0x198>
      break;
 80009ec:	bf00      	nop
 80009ee:	e000      	b.n	80009f2 <GameProcessor+0x19a>
      break;
 80009f0:	bf00      	nop
}
 80009f2:	bf00      	nop
 80009f4:	3714      	adds	r7, #20
 80009f6:	46bd      	mov	sp, r7
 80009f8:	bd90      	pop	{r4, r7, pc}
 80009fa:	bf00      	nop
 80009fc:	200000c8 	.word	0x200000c8
 8000a00:	200000cc 	.word	0x200000cc
 8000a04:	20000034 	.word	0x20000034
 8000a08:	10624dd3 	.word	0x10624dd3
 8000a0c:	200000c9 	.word	0x200000c9

08000a10 <StartTimeout>:


void StartTimeout(GameEvents TimeoutType){
 8000a10:	b580      	push	{r7, lr}
 8000a12:	b084      	sub	sp, #16
 8000a14:	af00      	add	r7, sp, #0
 8000a16:	4603      	mov	r3, r0
 8000a18:	71fb      	strb	r3, [r7, #7]
  TimeoutDataStruct * timeout_local=NULL;
 8000a1a:	2300      	movs	r3, #0
 8000a1c:	60fb      	str	r3, [r7, #12]
  uint8_t i=0;
 8000a1e:	2300      	movs	r3, #0
 8000a20:	72fb      	strb	r3, [r7, #11]
  while(i<TIMEOUTS_COUNT){
 8000a22:	e010      	b.n	8000a46 <StartTimeout+0x36>
    if(Timeouts[i]->timeout_type==TimeoutType){
 8000a24:	7afb      	ldrb	r3, [r7, #11]
 8000a26:	4a11      	ldr	r2, [pc, #68]	@ (8000a6c <StartTimeout+0x5c>)
 8000a28:	f852 3023 	ldr.w	r3, [r2, r3, lsl #2]
 8000a2c:	781b      	ldrb	r3, [r3, #0]
 8000a2e:	79fa      	ldrb	r2, [r7, #7]
 8000a30:	429a      	cmp	r2, r3
 8000a32:	d105      	bne.n	8000a40 <StartTimeout+0x30>
      timeout_local=Timeouts[i];
 8000a34:	7afb      	ldrb	r3, [r7, #11]
 8000a36:	4a0d      	ldr	r2, [pc, #52]	@ (8000a6c <StartTimeout+0x5c>)
 8000a38:	f852 3023 	ldr.w	r3, [r2, r3, lsl #2]
 8000a3c:	60fb      	str	r3, [r7, #12]
      break;
 8000a3e:	e005      	b.n	8000a4c <StartTimeout+0x3c>
    }
    else
      i++;
 8000a40:	7afb      	ldrb	r3, [r7, #11]
 8000a42:	3301      	adds	r3, #1
 8000a44:	72fb      	strb	r3, [r7, #11]
  while(i<TIMEOUTS_COUNT){
 8000a46:	7afb      	ldrb	r3, [r7, #11]
 8000a48:	2b02      	cmp	r3, #2
 8000a4a:	d9eb      	bls.n	8000a24 <StartTimeout+0x14>
  }
  if(timeout_local==NULL)
 8000a4c:	68fb      	ldr	r3, [r7, #12]
 8000a4e:	2b00      	cmp	r3, #0
 8000a50:	d008      	beq.n	8000a64 <StartTimeout+0x54>
    return;
  timeout_local->start_timestamp=HAL_GetTick();
 8000a52:	f000 fddb 	bl	800160c <HAL_GetTick>
 8000a56:	4602      	mov	r2, r0
 8000a58:	68fb      	ldr	r3, [r7, #12]
 8000a5a:	605a      	str	r2, [r3, #4]
  //timeout_local->stop_timestamp+=timeout_local->start_timestamp;
  timeout_local->is_active=1;
 8000a5c:	68fb      	ldr	r3, [r7, #12]
 8000a5e:	2201      	movs	r2, #1
 8000a60:	705a      	strb	r2, [r3, #1]
 8000a62:	e000      	b.n	8000a66 <StartTimeout+0x56>
    return;
 8000a64:	bf00      	nop
}
 8000a66:	3710      	adds	r7, #16
 8000a68:	46bd      	mov	sp, r7
 8000a6a:	bd80      	pop	{r7, pc}
 8000a6c:	20000034 	.word	0x20000034

08000a70 <TimeoutProcessor>:

void TimeoutProcessor(void){
 8000a70:	b580      	push	{r7, lr}
 8000a72:	b082      	sub	sp, #8
 8000a74:	af00      	add	r7, sp, #0
  for(uint8_t i=0;i<TIMEOUTS_COUNT;i++){
 8000a76:	2300      	movs	r3, #0
 8000a78:	71fb      	strb	r3, [r7, #7]
 8000a7a:	e027      	b.n	8000acc <TimeoutProcessor+0x5c>
    if((HAL_GetTick()-Timeouts[i]->start_timestamp)>Timeouts[i]->timespan && Timeouts[i]->is_active){
 8000a7c:	f000 fdc6 	bl	800160c <HAL_GetTick>
 8000a80:	4602      	mov	r2, r0
 8000a82:	79fb      	ldrb	r3, [r7, #7]
 8000a84:	4915      	ldr	r1, [pc, #84]	@ (8000adc <TimeoutProcessor+0x6c>)
 8000a86:	f851 3023 	ldr.w	r3, [r1, r3, lsl #2]
 8000a8a:	685b      	ldr	r3, [r3, #4]
 8000a8c:	1ad2      	subs	r2, r2, r3
 8000a8e:	79fb      	ldrb	r3, [r7, #7]
 8000a90:	4912      	ldr	r1, [pc, #72]	@ (8000adc <TimeoutProcessor+0x6c>)
 8000a92:	f851 3023 	ldr.w	r3, [r1, r3, lsl #2]
 8000a96:	689b      	ldr	r3, [r3, #8]
 8000a98:	429a      	cmp	r2, r3
 8000a9a:	d914      	bls.n	8000ac6 <TimeoutProcessor+0x56>
 8000a9c:	79fb      	ldrb	r3, [r7, #7]
 8000a9e:	4a0f      	ldr	r2, [pc, #60]	@ (8000adc <TimeoutProcessor+0x6c>)
 8000aa0:	f852 3023 	ldr.w	r3, [r2, r3, lsl #2]
 8000aa4:	785b      	ldrb	r3, [r3, #1]
 8000aa6:	2b00      	cmp	r3, #0
 8000aa8:	d00d      	beq.n	8000ac6 <TimeoutProcessor+0x56>
      PlaceEventInQueue(Timeouts[i]->timeout_type);
 8000aaa:	79fb      	ldrb	r3, [r7, #7]
 8000aac:	4a0b      	ldr	r2, [pc, #44]	@ (8000adc <TimeoutProcessor+0x6c>)
 8000aae:	f852 3023 	ldr.w	r3, [r2, r3, lsl #2]
 8000ab2:	781b      	ldrb	r3, [r3, #0]
 8000ab4:	4618      	mov	r0, r3
 8000ab6:	f7ff fe3d 	bl	8000734 <PlaceEventInQueue>
      Timeouts[i]->is_active=0;
 8000aba:	79fb      	ldrb	r3, [r7, #7]
 8000abc:	4a07      	ldr	r2, [pc, #28]	@ (8000adc <TimeoutProcessor+0x6c>)
 8000abe:	f852 3023 	ldr.w	r3, [r2, r3, lsl #2]
 8000ac2:	2200      	movs	r2, #0
 8000ac4:	705a      	strb	r2, [r3, #1]
  for(uint8_t i=0;i<TIMEOUTS_COUNT;i++){
 8000ac6:	79fb      	ldrb	r3, [r7, #7]
 8000ac8:	3301      	adds	r3, #1
 8000aca:	71fb      	strb	r3, [r7, #7]
 8000acc:	79fb      	ldrb	r3, [r7, #7]
 8000ace:	2b02      	cmp	r3, #2
 8000ad0:	d9d4      	bls.n	8000a7c <TimeoutProcessor+0xc>
    }
  }
}
 8000ad2:	bf00      	nop
 8000ad4:	bf00      	nop
 8000ad6:	3708      	adds	r7, #8
 8000ad8:	46bd      	mov	sp, r7
 8000ada:	bd80      	pop	{r7, pc}
 8000adc:	20000034 	.word	0x20000034

08000ae0 <ParseKeysToLcdArrows>:

void ParseKeysToLcdArrows(uint8_t result){
 8000ae0:	b480      	push	{r7}
 8000ae2:	b083      	sub	sp, #12
 8000ae4:	af00      	add	r7, sp, #0
 8000ae6:	4603      	mov	r3, r0
 8000ae8:	71fb      	strb	r3, [r7, #7]
  switch(result){
 8000aea:	79fb      	ldrb	r3, [r7, #7]
 8000aec:	3b01      	subs	r3, #1
 8000aee:	2b07      	cmp	r3, #7
 8000af0:	d822      	bhi.n	8000b38 <ParseKeysToLcdArrows+0x58>
 8000af2:	a201      	add	r2, pc, #4	@ (adr r2, 8000af8 <ParseKeysToLcdArrows+0x18>)
 8000af4:	f852 f023 	ldr.w	pc, [r2, r3, lsl #2]
 8000af8:	08000b19 	.word	0x08000b19
 8000afc:	08000b31 	.word	0x08000b31
 8000b00:	08000b39 	.word	0x08000b39
 8000b04:	08000b21 	.word	0x08000b21
 8000b08:	08000b39 	.word	0x08000b39
 8000b0c:	08000b39 	.word	0x08000b39
 8000b10:	08000b39 	.word	0x08000b39
 8000b14:	08000b29 	.word	0x08000b29
    case KEY_UP_Pin:
      GameData.last_pressed_button=ARROW_UP;
 8000b18:	4b0c      	ldr	r3, [pc, #48]	@ (8000b4c <ParseKeysToLcdArrows+0x6c>)
 8000b1a:	2200      	movs	r2, #0
 8000b1c:	709a      	strb	r2, [r3, #2]
      break;
 8000b1e:	e00f      	b.n	8000b40 <ParseKeysToLcdArrows+0x60>
    case KEY_LEFT_Pin:
      GameData.last_pressed_button=ARROW_LEFT;
 8000b20:	4b0a      	ldr	r3, [pc, #40]	@ (8000b4c <ParseKeysToLcdArrows+0x6c>)
 8000b22:	227f      	movs	r2, #127	@ 0x7f
 8000b24:	709a      	strb	r2, [r3, #2]
      break;
 8000b26:	e00b      	b.n	8000b40 <ParseKeysToLcdArrows+0x60>
    case KEY_DOWN_Pin:
      GameData.last_pressed_button=ARROW_DOWN;
 8000b28:	4b08      	ldr	r3, [pc, #32]	@ (8000b4c <ParseKeysToLcdArrows+0x6c>)
 8000b2a:	2201      	movs	r2, #1
 8000b2c:	709a      	strb	r2, [r3, #2]
      break;
 8000b2e:	e007      	b.n	8000b40 <ParseKeysToLcdArrows+0x60>
    case KEY_RIGHT_Pin:
      GameData.last_pressed_button=ARROW_RIGHT;
 8000b30:	4b06      	ldr	r3, [pc, #24]	@ (8000b4c <ParseKeysToLcdArrows+0x6c>)
 8000b32:	227e      	movs	r2, #126	@ 0x7e
 8000b34:	709a      	strb	r2, [r3, #2]
      break;
 8000b36:	e003      	b.n	8000b40 <ParseKeysToLcdArrows+0x60>
    default:
      GameData.last_pressed_button=' ';
 8000b38:	4b04      	ldr	r3, [pc, #16]	@ (8000b4c <ParseKeysToLcdArrows+0x6c>)
 8000b3a:	2220      	movs	r2, #32
 8000b3c:	709a      	strb	r2, [r3, #2]
      break;
 8000b3e:	bf00      	nop
  }
}
 8000b40:	bf00      	nop
 8000b42:	370c      	adds	r7, #12
 8000b44:	46bd      	mov	sp, r7
 8000b46:	f85d 7b04 	ldr.w	r7, [sp], #4
 8000b4a:	4770      	bx	lr
 8000b4c:	200000cc 	.word	0x200000cc

08000b50 <lcd_init>:

/** @brief: moving a cursor to the start of a specific line */
void lcd_set_line(uint8_t line);

/** @brief: initialization of lcd to work with i2c module*/
void lcd_init (void){
 8000b50:	b580      	push	{r7, lr}
 8000b52:	af00      	add	r7, sp, #0
	// 4 bit initialisation
	HAL_Delay(50);  // wait for >40ms
 8000b54:	2032      	movs	r0, #50	@ 0x32
 8000b56:	f000 fd65 	bl	8001624 <HAL_Delay>
	lcd_send_cmd (0x30);
 8000b5a:	2030      	movs	r0, #48	@ 0x30
 8000b5c:	f000 f838 	bl	8000bd0 <lcd_send_cmd>
	HAL_Delay(10);  // wait for >4.1ms
 8000b60:	200a      	movs	r0, #10
 8000b62:	f000 fd5f 	bl	8001624 <HAL_Delay>
	lcd_send_cmd (0x30);
 8000b66:	2030      	movs	r0, #48	@ 0x30
 8000b68:	f000 f832 	bl	8000bd0 <lcd_send_cmd>
	HAL_Delay(5);  // wait for >100us
 8000b6c:	2005      	movs	r0, #5
 8000b6e:	f000 fd59 	bl	8001624 <HAL_Delay>
	lcd_send_cmd (0x30);
 8000b72:	2030      	movs	r0, #48	@ 0x30
 8000b74:	f000 f82c 	bl	8000bd0 <lcd_send_cmd>
	HAL_Delay(20);
 8000b78:	2014      	movs	r0, #20
 8000b7a:	f000 fd53 	bl	8001624 <HAL_Delay>
	lcd_send_cmd (0x20);  // 4bit mode
 8000b7e:	2020      	movs	r0, #32
 8000b80:	f000 f826 	bl	8000bd0 <lcd_send_cmd>
	HAL_Delay(20);
 8000b84:	2014      	movs	r0, #20
 8000b86:	f000 fd4d 	bl	8001624 <HAL_Delay>

  // dislay initialisation
	lcd_send_cmd (0x28); // Function set --> DL=0 (4 bit mode), N = 1 (2 line display) F = 0 (5x8 characters)
 8000b8a:	2028      	movs	r0, #40	@ 0x28
 8000b8c:	f000 f820 	bl	8000bd0 <lcd_send_cmd>
	HAL_Delay(5);
 8000b90:	2005      	movs	r0, #5
 8000b92:	f000 fd47 	bl	8001624 <HAL_Delay>
	lcd_send_cmd (0x08); //Display on/off control --> D=0,C=0, B=0  ---> display off
 8000b96:	2008      	movs	r0, #8
 8000b98:	f000 f81a 	bl	8000bd0 <lcd_send_cmd>
	HAL_Delay(5);
 8000b9c:	2005      	movs	r0, #5
 8000b9e:	f000 fd41 	bl	8001624 <HAL_Delay>
	lcd_send_cmd (0x01);  // clear display
 8000ba2:	2001      	movs	r0, #1
 8000ba4:	f000 f814 	bl	8000bd0 <lcd_send_cmd>
	HAL_Delay(1);
 8000ba8:	2001      	movs	r0, #1
 8000baa:	f000 fd3b 	bl	8001624 <HAL_Delay>
	HAL_Delay(5);
 8000bae:	2005      	movs	r0, #5
 8000bb0:	f000 fd38 	bl	8001624 <HAL_Delay>
	lcd_send_cmd (0x06); //Entry mode set --> I/D = 1 (increment cursor) & S = 0 (no shift)
 8000bb4:	2006      	movs	r0, #6
 8000bb6:	f000 f80b 	bl	8000bd0 <lcd_send_cmd>
	HAL_Delay(5);
 8000bba:	2005      	movs	r0, #5
 8000bbc:	f000 fd32 	bl	8001624 <HAL_Delay>
	lcd_send_cmd (0x0C); //Display on/off control --> D = 1, C and B = 0. (Cursor and blink, last two bits)
 8000bc0:	200c      	movs	r0, #12
 8000bc2:	f000 f805 	bl	8000bd0 <lcd_send_cmd>
	lcd_clear_buffer();
 8000bc6:	f000 f8bf 	bl	8000d48 <lcd_clear_buffer>
}
 8000bca:	bf00      	nop
 8000bcc:	bd80      	pop	{r7, pc}
	...

08000bd0 <lcd_send_cmd>:

/** @brief: sends command to an lcd*/
void lcd_send_cmd (char cmd){
 8000bd0:	b580      	push	{r7, lr}
 8000bd2:	b086      	sub	sp, #24
 8000bd4:	af02      	add	r7, sp, #8
 8000bd6:	4603      	mov	r3, r0
 8000bd8:	71fb      	strb	r3, [r7, #7]
  char data_u, data_l;
	uint8_t data_t[4];
	data_u = (cmd&0xf0);
 8000bda:	79fb      	ldrb	r3, [r7, #7]
 8000bdc:	f023 030f 	bic.w	r3, r3, #15
 8000be0:	73fb      	strb	r3, [r7, #15]
	data_l = ((cmd<<4)&0xf0);
 8000be2:	79fb      	ldrb	r3, [r7, #7]
 8000be4:	011b      	lsls	r3, r3, #4
 8000be6:	73bb      	strb	r3, [r7, #14]
	data_t[0] = data_u|0x0C;  //en=1, rs=0
 8000be8:	7bfb      	ldrb	r3, [r7, #15]
 8000bea:	f043 030c 	orr.w	r3, r3, #12
 8000bee:	b2db      	uxtb	r3, r3
 8000bf0:	723b      	strb	r3, [r7, #8]
	data_t[1] = data_u|0x08;  //en=0, rs=0
 8000bf2:	7bfb      	ldrb	r3, [r7, #15]
 8000bf4:	f043 0308 	orr.w	r3, r3, #8
 8000bf8:	b2db      	uxtb	r3, r3
 8000bfa:	727b      	strb	r3, [r7, #9]
	data_t[2] = data_l|0x0C;  //en=1, rs=0
 8000bfc:	7bbb      	ldrb	r3, [r7, #14]
 8000bfe:	f043 030c 	orr.w	r3, r3, #12
 8000c02:	b2db      	uxtb	r3, r3
 8000c04:	72bb      	strb	r3, [r7, #10]
	data_t[3] = data_l|0x08;  //en=0, rs=0
 8000c06:	7bbb      	ldrb	r3, [r7, #14]
 8000c08:	f043 0308 	orr.w	r3, r3, #8
 8000c0c:	b2db      	uxtb	r3, r3
 8000c0e:	72fb      	strb	r3, [r7, #11]
	HAL_I2C_Master_Transmit (&hi2c1, SLAVE_ADDRESS_LCD,(uint8_t *) data_t, 4, 100);
 8000c10:	f107 0208 	add.w	r2, r7, #8
 8000c14:	2364      	movs	r3, #100	@ 0x64
 8000c16:	9300      	str	r3, [sp, #0]
 8000c18:	2304      	movs	r3, #4
 8000c1a:	214e      	movs	r1, #78	@ 0x4e
 8000c1c:	4803      	ldr	r0, [pc, #12]	@ (8000c2c <lcd_send_cmd+0x5c>)
 8000c1e:	f001 f83d 	bl	8001c9c <HAL_I2C_Master_Transmit>
}
 8000c22:	bf00      	nop
 8000c24:	3710      	adds	r7, #16
 8000c26:	46bd      	mov	sp, r7
 8000c28:	bd80      	pop	{r7, pc}
 8000c2a:	bf00      	nop
 8000c2c:	20000138 	.word	0x20000138

08000c30 <lcd_send_data>:

/** @brief: sends data to an lcd*/
void lcd_send_data (char data){
 8000c30:	b580      	push	{r7, lr}
 8000c32:	b086      	sub	sp, #24
 8000c34:	af02      	add	r7, sp, #8
 8000c36:	4603      	mov	r3, r0
 8000c38:	71fb      	strb	r3, [r7, #7]
	char data_u, data_l;
	uint8_t data_t[4];
	data_u = (data&0xf0);
 8000c3a:	79fb      	ldrb	r3, [r7, #7]
 8000c3c:	f023 030f 	bic.w	r3, r3, #15
 8000c40:	73fb      	strb	r3, [r7, #15]
	data_l = ((data<<4)&0xf0);
 8000c42:	79fb      	ldrb	r3, [r7, #7]
 8000c44:	011b      	lsls	r3, r3, #4
 8000c46:	73bb      	strb	r3, [r7, #14]
	data_t[0] = data_u|0x0D;  //en=1, rs=1
 8000c48:	7bfb      	ldrb	r3, [r7, #15]
 8000c4a:	f043 030d 	orr.w	r3, r3, #13
 8000c4e:	b2db      	uxtb	r3, r3
 8000c50:	723b      	strb	r3, [r7, #8]
	data_t[1] = data_u|0x09;  //en=0, rs=1
 8000c52:	7bfb      	ldrb	r3, [r7, #15]
 8000c54:	f043 0309 	orr.w	r3, r3, #9
 8000c58:	b2db      	uxtb	r3, r3
 8000c5a:	727b      	strb	r3, [r7, #9]
	data_t[2] = data_l|0x0D;  //en=1, rs=1
 8000c5c:	7bbb      	ldrb	r3, [r7, #14]
 8000c5e:	f043 030d 	orr.w	r3, r3, #13
 8000c62:	b2db      	uxtb	r3, r3
 8000c64:	72bb      	strb	r3, [r7, #10]
	data_t[3] = data_l|0x09;  //en=0, rs=1
 8000c66:	7bbb      	ldrb	r3, [r7, #14]
 8000c68:	f043 0309 	orr.w	r3, r3, #9
 8000c6c:	b2db      	uxtb	r3, r3
 8000c6e:	72fb      	strb	r3, [r7, #11]
	HAL_I2C_Master_Transmit (&hi2c1, SLAVE_ADDRESS_LCD,(uint8_t *) data_t, 4, 100);
 8000c70:	f107 0208 	add.w	r2, r7, #8
 8000c74:	2364      	movs	r3, #100	@ 0x64
 8000c76:	9300      	str	r3, [sp, #0]
 8000c78:	2304      	movs	r3, #4
 8000c7a:	214e      	movs	r1, #78	@ 0x4e
 8000c7c:	4803      	ldr	r0, [pc, #12]	@ (8000c8c <lcd_send_data+0x5c>)
 8000c7e:	f001 f80d 	bl	8001c9c <HAL_I2C_Master_Transmit>
}
 8000c82:	bf00      	nop
 8000c84:	3710      	adds	r7, #16
 8000c86:	46bd      	mov	sp, r7
 8000c88:	bd80      	pop	{r7, pc}
 8000c8a:	bf00      	nop
 8000c8c:	20000138 	.word	0x20000138

08000c90 <lcd_set_line>:

/** @brief: moving a cursor to the start of a specific line */
void lcd_set_line(uint8_t line){
 8000c90:	b580      	push	{r7, lr}
 8000c92:	b084      	sub	sp, #16
 8000c94:	af00      	add	r7, sp, #0
 8000c96:	4603      	mov	r3, r0
 8000c98:	71fb      	strb	r3, [r7, #7]
	uint8_t frame=0x80;
 8000c9a:	2380      	movs	r3, #128	@ 0x80
 8000c9c:	73fb      	strb	r3, [r7, #15]
	switch(line){
 8000c9e:	79fb      	ldrb	r3, [r7, #7]
 8000ca0:	2b03      	cmp	r3, #3
 8000ca2:	d81a      	bhi.n	8000cda <lcd_set_line+0x4a>
 8000ca4:	a201      	add	r2, pc, #4	@ (adr r2, 8000cac <lcd_set_line+0x1c>)
 8000ca6:	f852 f023 	ldr.w	pc, [r2, r3, lsl #2]
 8000caa:	bf00      	nop
 8000cac:	08000cdb 	.word	0x08000cdb
 8000cb0:	08000cbd 	.word	0x08000cbd
 8000cb4:	08000cc7 	.word	0x08000cc7
 8000cb8:	08000cd1 	.word	0x08000cd1
		case 0:
			frame|=0x00;
			break;
		case 1:
			frame|=0x40;
 8000cbc:	7bfb      	ldrb	r3, [r7, #15]
 8000cbe:	f043 0340 	orr.w	r3, r3, #64	@ 0x40
 8000cc2:	73fb      	strb	r3, [r7, #15]
			break;
 8000cc4:	e009      	b.n	8000cda <lcd_set_line+0x4a>
		case 2:
			frame|=0x14;
 8000cc6:	7bfb      	ldrb	r3, [r7, #15]
 8000cc8:	f043 0314 	orr.w	r3, r3, #20
 8000ccc:	73fb      	strb	r3, [r7, #15]
			break;
 8000cce:	e004      	b.n	8000cda <lcd_set_line+0x4a>
		case 3:
			frame|=0x54;
 8000cd0:	7bfb      	ldrb	r3, [r7, #15]
 8000cd2:	f043 0354 	orr.w	r3, r3, #84	@ 0x54
 8000cd6:	73fb      	strb	r3, [r7, #15]
			break;
 8000cd8:	bf00      	nop
	}
	lcd_send_cmd(frame);
 8000cda:	7bfb      	ldrb	r3, [r7, #15]
 8000cdc:	4618      	mov	r0, r3
 8000cde:	f7ff ff77 	bl	8000bd0 <lcd_send_cmd>
}
 8000ce2:	bf00      	nop
 8000ce4:	3710      	adds	r7, #16
 8000ce6:	46bd      	mov	sp, r7
 8000ce8:	bd80      	pop	{r7, pc}
 8000cea:	bf00      	nop

08000cec <lcd_send_string>:
void lcd_clear(void){
	lcd_send_cmd (0x01);
}

/** @brief: sends full string on one line of lcd */
void lcd_send_string (char *str,uint8_t size){
 8000cec:	b580      	push	{r7, lr}
 8000cee:	b082      	sub	sp, #8
 8000cf0:	af00      	add	r7, sp, #0
 8000cf2:	6078      	str	r0, [r7, #4]
 8000cf4:	460b      	mov	r3, r1
 8000cf6:	70fb      	strb	r3, [r7, #3]
	while (size--) lcd_send_data (*str++);
 8000cf8:	e006      	b.n	8000d08 <lcd_send_string+0x1c>
 8000cfa:	687b      	ldr	r3, [r7, #4]
 8000cfc:	1c5a      	adds	r2, r3, #1
 8000cfe:	607a      	str	r2, [r7, #4]
 8000d00:	781b      	ldrb	r3, [r3, #0]
 8000d02:	4618      	mov	r0, r3
 8000d04:	f7ff ff94 	bl	8000c30 <lcd_send_data>
 8000d08:	78fb      	ldrb	r3, [r7, #3]
 8000d0a:	1e5a      	subs	r2, r3, #1
 8000d0c:	70fa      	strb	r2, [r7, #3]
 8000d0e:	2b00      	cmp	r3, #0
 8000d10:	d1f3      	bne.n	8000cfa <lcd_send_string+0xe>
}
 8000d12:	bf00      	nop
 8000d14:	bf00      	nop
 8000d16:	3708      	adds	r7, #8
 8000d18:	46bd      	mov	sp, r7
 8000d1a:	bd80      	pop	{r7, pc}

08000d1c <lcd_update_buffer>:

/** @brief: updates a buffer with our data */
void lcd_update_buffer(uint8_t * data , uint8_t size,uint8_t offset){
 8000d1c:	b580      	push	{r7, lr}
 8000d1e:	b082      	sub	sp, #8
 8000d20:	af00      	add	r7, sp, #0
 8000d22:	6078      	str	r0, [r7, #4]
 8000d24:	460b      	mov	r3, r1
 8000d26:	70fb      	strb	r3, [r7, #3]
 8000d28:	4613      	mov	r3, r2
 8000d2a:	70bb      	strb	r3, [r7, #2]
	memcpy(LCD_80buf+offset,data,size);
 8000d2c:	78bb      	ldrb	r3, [r7, #2]
 8000d2e:	4a05      	ldr	r2, [pc, #20]	@ (8000d44 <lcd_update_buffer+0x28>)
 8000d30:	4413      	add	r3, r2
 8000d32:	78fa      	ldrb	r2, [r7, #3]
 8000d34:	6879      	ldr	r1, [r7, #4]
 8000d36:	4618      	mov	r0, r3
 8000d38:	f003 fa6e 	bl	8004218 <memcpy>
}
 8000d3c:	bf00      	nop
 8000d3e:	3708      	adds	r7, #8
 8000d40:	46bd      	mov	sp, r7
 8000d42:	bd80      	pop	{r7, pc}
 8000d44:	200000e8 	.word	0x200000e8

08000d48 <lcd_clear_buffer>:

void lcd_clear_buffer(void){
 8000d48:	b580      	push	{r7, lr}
 8000d4a:	af00      	add	r7, sp, #0
  memset(LCD_80buf,' ',80);
 8000d4c:	2250      	movs	r2, #80	@ 0x50
 8000d4e:	2120      	movs	r1, #32
 8000d50:	4802      	ldr	r0, [pc, #8]	@ (8000d5c <lcd_clear_buffer+0x14>)
 8000d52:	f003 fa2d 	bl	80041b0 <memset>
}
 8000d56:	bf00      	nop
 8000d58:	bd80      	pop	{r7, pc}
 8000d5a:	bf00      	nop
 8000d5c:	200000e8 	.word	0x200000e8

08000d60 <lcd_update_screen>:

/** @brief: sends full data to the lcd to update whole screen */
void lcd_update_screen(void){
 8000d60:	b580      	push	{r7, lr}
 8000d62:	af00      	add	r7, sp, #0
	lcd_set_line(0);
 8000d64:	2000      	movs	r0, #0
 8000d66:	f7ff ff93 	bl	8000c90 <lcd_set_line>
	lcd_send_string(LCD_80buf,20);
 8000d6a:	2114      	movs	r1, #20
 8000d6c:	480e      	ldr	r0, [pc, #56]	@ (8000da8 <lcd_update_screen+0x48>)
 8000d6e:	f7ff ffbd 	bl	8000cec <lcd_send_string>
	lcd_set_line(1);
 8000d72:	2001      	movs	r0, #1
 8000d74:	f7ff ff8c 	bl	8000c90 <lcd_set_line>
	lcd_send_string(LCD_80buf+20,20);
 8000d78:	4b0c      	ldr	r3, [pc, #48]	@ (8000dac <lcd_update_screen+0x4c>)
 8000d7a:	2114      	movs	r1, #20
 8000d7c:	4618      	mov	r0, r3
 8000d7e:	f7ff ffb5 	bl	8000cec <lcd_send_string>
	lcd_set_line(2);
 8000d82:	2002      	movs	r0, #2
 8000d84:	f7ff ff84 	bl	8000c90 <lcd_set_line>
	lcd_send_string(LCD_80buf+40,20);
 8000d88:	4b09      	ldr	r3, [pc, #36]	@ (8000db0 <lcd_update_screen+0x50>)
 8000d8a:	2114      	movs	r1, #20
 8000d8c:	4618      	mov	r0, r3
 8000d8e:	f7ff ffad 	bl	8000cec <lcd_send_string>
	lcd_set_line(3);
 8000d92:	2003      	movs	r0, #3
 8000d94:	f7ff ff7c 	bl	8000c90 <lcd_set_line>
	lcd_send_string(LCD_80buf+60,20);
 8000d98:	4b06      	ldr	r3, [pc, #24]	@ (8000db4 <lcd_update_screen+0x54>)
 8000d9a:	2114      	movs	r1, #20
 8000d9c:	4618      	mov	r0, r3
 8000d9e:	f7ff ffa5 	bl	8000cec <lcd_send_string>
}
 8000da2:	bf00      	nop
 8000da4:	bd80      	pop	{r7, pc}
 8000da6:	bf00      	nop
 8000da8:	200000e8 	.word	0x200000e8
 8000dac:	200000fc 	.word	0x200000fc
 8000db0:	20000110 	.word	0x20000110
 8000db4:	20000124 	.word	0x20000124

08000db8 <lcd_set_custom_symbol>:

void lcd_set_custom_symbol(uint8_t *buf,uint8_t symbol_count){
 8000db8:	b580      	push	{r7, lr}
 8000dba:	b084      	sub	sp, #16
 8000dbc:	af00      	add	r7, sp, #0
 8000dbe:	6078      	str	r0, [r7, #4]
 8000dc0:	460b      	mov	r3, r1
 8000dc2:	70fb      	strb	r3, [r7, #3]
  lcd_send_cmd(0x40);
 8000dc4:	2040      	movs	r0, #64	@ 0x40
 8000dc6:	f7ff ff03 	bl	8000bd0 <lcd_send_cmd>
  for(uint8_t i=0;i<symbol_count*8;i++)
 8000dca:	2300      	movs	r3, #0
 8000dcc:	73fb      	strb	r3, [r7, #15]
 8000dce:	e009      	b.n	8000de4 <lcd_set_custom_symbol+0x2c>
    lcd_send_data(buf[i]);
 8000dd0:	7bfb      	ldrb	r3, [r7, #15]
 8000dd2:	687a      	ldr	r2, [r7, #4]
 8000dd4:	4413      	add	r3, r2
 8000dd6:	781b      	ldrb	r3, [r3, #0]
 8000dd8:	4618      	mov	r0, r3
 8000dda:	f7ff ff29 	bl	8000c30 <lcd_send_data>
  for(uint8_t i=0;i<symbol_count*8;i++)
 8000dde:	7bfb      	ldrb	r3, [r7, #15]
 8000de0:	3301      	adds	r3, #1
 8000de2:	73fb      	strb	r3, [r7, #15]
 8000de4:	7bfa      	ldrb	r2, [r7, #15]
 8000de6:	78fb      	ldrb	r3, [r7, #3]
 8000de8:	00db      	lsls	r3, r3, #3
 8000dea:	429a      	cmp	r2, r3
 8000dec:	dbf0      	blt.n	8000dd0 <lcd_set_custom_symbol+0x18>
}
 8000dee:	bf00      	nop
 8000df0:	bf00      	nop
 8000df2:	3710      	adds	r7, #16
 8000df4:	46bd      	mov	sp, r7
 8000df6:	bd80      	pop	{r7, pc}

08000df8 <main>:
/**
  * @brief  The application entry point.
  * @retval int
  */
int main(void)
{
 8000df8:	b580      	push	{r7, lr}
 8000dfa:	b082      	sub	sp, #8
 8000dfc:	af00      	add	r7, sp, #0

  /* USER CODE BEGIN 1 */
  uint32_t reftick=0;
 8000dfe:	2300      	movs	r3, #0
 8000e00:	607b      	str	r3, [r7, #4]
  /* USER CODE END 1 */

  /* MCU Configuration--------------------------------------------------------*/

  /* Reset of all peripherals, Initializes the Flash interface and the Systick. */
  HAL_Init();
 8000e02:	f000 fb9e 	bl	8001542 <HAL_Init>
  /* USER CODE BEGIN Init */

  /* USER CODE END Init */

  /* Configure the system clock */
  SystemClock_Config();
 8000e06:	f000 f84b 	bl	8000ea0 <SystemClock_Config>
  /* USER CODE BEGIN SysInit */

  /* USER CODE END SysInit */

  /* Initialize all configured peripherals */
  MX_GPIO_Init();
 8000e0a:	f000 f91d 	bl	8001048 <MX_GPIO_Init>
  MX_LPUART1_UART_Init();
 8000e0e:	f000 f8d1 	bl	8000fb4 <MX_LPUART1_UART_Init>
  MX_I2C1_Init();
 8000e12:	f000 f88f 	bl	8000f34 <MX_I2C1_Init>
  /* USER CODE BEGIN 2 */
  REVIVE_STRATAGEM.halfbyte_element.key1=KEY_UP_Pin;
 8000e16:	4a1f      	ldr	r2, [pc, #124]	@ (8000e94 <main+0x9c>)
 8000e18:	7813      	ldrb	r3, [r2, #0]
 8000e1a:	2101      	movs	r1, #1
 8000e1c:	f361 0303 	bfi	r3, r1, #0, #4
 8000e20:	7013      	strb	r3, [r2, #0]
  HAL_Delay(500);
 8000e22:	f44f 70fa 	mov.w	r0, #500	@ 0x1f4
 8000e26:	f000 fbfd 	bl	8001624 <HAL_Delay>
  lcd_init();
 8000e2a:	f7ff fe91 	bl	8000b50 <lcd_init>
  HAL_Delay(500);
 8000e2e:	f44f 70fa 	mov.w	r0, #500	@ 0x1f4
 8000e32:	f000 fbf7 	bl	8001624 <HAL_Delay>
  DisplayConfigCustomChars();
 8000e36:	f7ff fbd9 	bl	80005ec <DisplayConfigCustomChars>
  //lcd_clear();
  lcd_update_buffer((uint8_t*)"stratagem game test", 20, 0);
 8000e3a:	2200      	movs	r2, #0
 8000e3c:	2114      	movs	r1, #20
 8000e3e:	4816      	ldr	r0, [pc, #88]	@ (8000e98 <main+0xa0>)
 8000e40:	f7ff ff6c 	bl	8000d1c <lcd_update_buffer>
  lcd_update_screen();
 8000e44:	f7ff ff8c 	bl	8000d60 <lcd_update_screen>
  /* Infinite loop */
  /* USER CODE BEGIN WHILE */
  while (1)
  {
    //this stuff had to be executed every +-2ms , press detection is made at
    result=GetKeyStates();
 8000e48:	f000 fa70 	bl	800132c <GetKeyStates>
 8000e4c:	4603      	mov	r3, r0
 8000e4e:	461a      	mov	r2, r3
 8000e50:	4b12      	ldr	r3, [pc, #72]	@ (8000e9c <main+0xa4>)
 8000e52:	701a      	strb	r2, [r3, #0]
    if(result!=0){
 8000e54:	4b11      	ldr	r3, [pc, #68]	@ (8000e9c <main+0xa4>)
 8000e56:	781b      	ldrb	r3, [r3, #0]
 8000e58:	2b00      	cmp	r3, #0
 8000e5a:	d007      	beq.n	8000e6c <main+0x74>
      //uint8_t new_arrow=ParseKeysToLcdArrows(result);
      PlaceEventInQueue(ANY_BUTTON_PRESSED);
 8000e5c:	2001      	movs	r0, #1
 8000e5e:	f7ff fc69 	bl	8000734 <PlaceEventInQueue>
      ParseKeysToLcdArrows(result);
 8000e62:	4b0e      	ldr	r3, [pc, #56]	@ (8000e9c <main+0xa4>)
 8000e64:	781b      	ldrb	r3, [r3, #0]
 8000e66:	4618      	mov	r0, r3
 8000e68:	f7ff fe3a 	bl	8000ae0 <ParseKeysToLcdArrows>
//      WriteNextSequenceArrow(new_arrow,increment/4);
      //lcd_update_buffer(&new_arrow,1,20+(increment/4));
//      increment+=4;
    }

    HAL_Delay(2);
 8000e6c:	2002      	movs	r0, #2
 8000e6e:	f000 fbd9 	bl	8001624 <HAL_Delay>
    AppStateProcessor();
 8000e72:	f7ff fcaf 	bl	80007d4 <AppStateProcessor>
    if((HAL_GetTick()-reftick)>300){
 8000e76:	f000 fbc9 	bl	800160c <HAL_GetTick>
 8000e7a:	4602      	mov	r2, r0
 8000e7c:	687b      	ldr	r3, [r7, #4]
 8000e7e:	1ad3      	subs	r3, r2, r3
 8000e80:	f5b3 7f96 	cmp.w	r3, #300	@ 0x12c
 8000e84:	d9e0      	bls.n	8000e48 <main+0x50>
      reftick=HAL_GetTick();
 8000e86:	f000 fbc1 	bl	800160c <HAL_GetTick>
 8000e8a:	6078      	str	r0, [r7, #4]
      lcd_update_screen();
 8000e8c:	f7ff ff68 	bl	8000d60 <lcd_update_screen>
    result=GetKeyStates();
 8000e90:	e7da      	b.n	8000e48 <main+0x50>
 8000e92:	bf00      	nop
 8000e94:	20000040 	.word	0x20000040
 8000e98:	08004b80 	.word	0x08004b80
 8000e9c:	20000220 	.word	0x20000220

08000ea0 <SystemClock_Config>:
/**
  * @brief System Clock Configuration
  * @retval None
  */
void SystemClock_Config(void)
{
 8000ea0:	b580      	push	{r7, lr}
 8000ea2:	b094      	sub	sp, #80	@ 0x50
 8000ea4:	af00      	add	r7, sp, #0
  RCC_OscInitTypeDef RCC_OscInitStruct = {0};
 8000ea6:	f107 0318 	add.w	r3, r7, #24
 8000eaa:	2238      	movs	r2, #56	@ 0x38
 8000eac:	2100      	movs	r1, #0
 8000eae:	4618      	mov	r0, r3
 8000eb0:	f003 f97e 	bl	80041b0 <memset>
  RCC_ClkInitTypeDef RCC_ClkInitStruct = {0};
 8000eb4:	1d3b      	adds	r3, r7, #4
 8000eb6:	2200      	movs	r2, #0
 8000eb8:	601a      	str	r2, [r3, #0]
 8000eba:	605a      	str	r2, [r3, #4]
 8000ebc:	609a      	str	r2, [r3, #8]
 8000ebe:	60da      	str	r2, [r3, #12]
 8000ec0:	611a      	str	r2, [r3, #16]

  /** Configure the main internal regulator output voltage
  */
  HAL_PWREx_ControlVoltageScaling(PWR_REGULATOR_VOLTAGE_SCALE1_BOOST);
 8000ec2:	2000      	movs	r0, #0
 8000ec4:	f001 fab4 	bl	8002430 <HAL_PWREx_ControlVoltageScaling>

  /** Initializes the RCC Oscillators according to the specified parameters
  * in the RCC_OscInitTypeDef structure.
  */
  RCC_OscInitStruct.OscillatorType = RCC_OSCILLATORTYPE_HSE;
 8000ec8:	2301      	movs	r3, #1
 8000eca:	61bb      	str	r3, [r7, #24]
  RCC_OscInitStruct.HSEState = RCC_HSE_ON;
 8000ecc:	f44f 3380 	mov.w	r3, #65536	@ 0x10000
 8000ed0:	61fb      	str	r3, [r7, #28]
  RCC_OscInitStruct.PLL.PLLState = RCC_PLL_ON;
 8000ed2:	2302      	movs	r3, #2
 8000ed4:	637b      	str	r3, [r7, #52]	@ 0x34
  RCC_OscInitStruct.PLL.PLLSource = RCC_PLLSOURCE_HSE;
 8000ed6:	2303      	movs	r3, #3
 8000ed8:	63bb      	str	r3, [r7, #56]	@ 0x38
  RCC_OscInitStruct.PLL.PLLM = RCC_PLLM_DIV6;
 8000eda:	2306      	movs	r3, #6
 8000edc:	63fb      	str	r3, [r7, #60]	@ 0x3c
  RCC_OscInitStruct.PLL.PLLN = 85;
 8000ede:	2355      	movs	r3, #85	@ 0x55
 8000ee0:	643b      	str	r3, [r7, #64]	@ 0x40
  RCC_OscInitStruct.PLL.PLLP = RCC_PLLP_DIV2;
 8000ee2:	2302      	movs	r3, #2
 8000ee4:	647b      	str	r3, [r7, #68]	@ 0x44
  RCC_OscInitStruct.PLL.PLLQ = RCC_PLLQ_DIV2;
 8000ee6:	2302      	movs	r3, #2
 8000ee8:	64bb      	str	r3, [r7, #72]	@ 0x48
  RCC_OscInitStruct.PLL.PLLR = RCC_PLLR_DIV2;
 8000eea:	2302      	movs	r3, #2
 8000eec:	64fb      	str	r3, [r7, #76]	@ 0x4c
  if (HAL_RCC_OscConfig(&RCC_OscInitStruct) != HAL_OK)
 8000eee:	f107 0318 	add.w	r3, r7, #24
 8000ef2:	4618      	mov	r0, r3
 8000ef4:	f001 fb50 	bl	8002598 <HAL_RCC_OscConfig>
 8000ef8:	4603      	mov	r3, r0
 8000efa:	2b00      	cmp	r3, #0
 8000efc:	d001      	beq.n	8000f02 <SystemClock_Config+0x62>
  {
    Error_Handler();
 8000efe:	f000 f907 	bl	8001110 <Error_Handler>
  }

  /** Initializes the CPU, AHB and APB buses clocks
  */
  RCC_ClkInitStruct.ClockType = RCC_CLOCKTYPE_HCLK|RCC_CLOCKTYPE_SYSCLK
 8000f02:	230f      	movs	r3, #15
 8000f04:	607b      	str	r3, [r7, #4]
                              |RCC_CLOCKTYPE_PCLK1|RCC_CLOCKTYPE_PCLK2;
  RCC_ClkInitStruct.SYSCLKSource = RCC_SYSCLKSOURCE_PLLCLK;
 8000f06:	2303      	movs	r3, #3
 8000f08:	60bb      	str	r3, [r7, #8]
  RCC_ClkInitStruct.AHBCLKDivider = RCC_SYSCLK_DIV1;
 8000f0a:	2300      	movs	r3, #0
 8000f0c:	60fb      	str	r3, [r7, #12]
  RCC_ClkInitStruct.APB1CLKDivider = RCC_HCLK_DIV1;
 8000f0e:	2300      	movs	r3, #0
 8000f10:	613b      	str	r3, [r7, #16]
  RCC_ClkInitStruct.APB2CLKDivider = RCC_HCLK_DIV1;
 8000f12:	2300      	movs	r3, #0
 8000f14:	617b      	str	r3, [r7, #20]

  if (HAL_RCC_ClockConfig(&RCC_ClkInitStruct, FLASH_LATENCY_4) != HAL_OK)
 8000f16:	1d3b      	adds	r3, r7, #4
 8000f18:	2104      	movs	r1, #4
 8000f1a:	4618      	mov	r0, r3
 8000f1c:	f001 fe4e 	bl	8002bbc <HAL_RCC_ClockConfig>
 8000f20:	4603      	mov	r3, r0
 8000f22:	2b00      	cmp	r3, #0
 8000f24:	d001      	beq.n	8000f2a <SystemClock_Config+0x8a>
  {
    Error_Handler();
 8000f26:	f000 f8f3 	bl	8001110 <Error_Handler>
  }
}
 8000f2a:	bf00      	nop
 8000f2c:	3750      	adds	r7, #80	@ 0x50
 8000f2e:	46bd      	mov	sp, r7
 8000f30:	bd80      	pop	{r7, pc}
	...

08000f34 <MX_I2C1_Init>:
  * @brief I2C1 Initialization Function
  * @param None
  * @retval None
  */
static void MX_I2C1_Init(void)
{
 8000f34:	b580      	push	{r7, lr}
 8000f36:	af00      	add	r7, sp, #0
  /* USER CODE END I2C1_Init 0 */

  /* USER CODE BEGIN I2C1_Init 1 */

  /* USER CODE END I2C1_Init 1 */
  hi2c1.Instance = I2C1;
 8000f38:	4b1b      	ldr	r3, [pc, #108]	@ (8000fa8 <MX_I2C1_Init+0x74>)
 8000f3a:	4a1c      	ldr	r2, [pc, #112]	@ (8000fac <MX_I2C1_Init+0x78>)
 8000f3c:	601a      	str	r2, [r3, #0]
  hi2c1.Init.Timing = 0x40B285C2;
 8000f3e:	4b1a      	ldr	r3, [pc, #104]	@ (8000fa8 <MX_I2C1_Init+0x74>)
 8000f40:	4a1b      	ldr	r2, [pc, #108]	@ (8000fb0 <MX_I2C1_Init+0x7c>)
 8000f42:	605a      	str	r2, [r3, #4]
  hi2c1.Init.OwnAddress1 = 0;
 8000f44:	4b18      	ldr	r3, [pc, #96]	@ (8000fa8 <MX_I2C1_Init+0x74>)
 8000f46:	2200      	movs	r2, #0
 8000f48:	609a      	str	r2, [r3, #8]
  hi2c1.Init.AddressingMode = I2C_ADDRESSINGMODE_7BIT;
 8000f4a:	4b17      	ldr	r3, [pc, #92]	@ (8000fa8 <MX_I2C1_Init+0x74>)
 8000f4c:	2201      	movs	r2, #1
 8000f4e:	60da      	str	r2, [r3, #12]
  hi2c1.Init.DualAddressMode = I2C_DUALADDRESS_DISABLE;
 8000f50:	4b15      	ldr	r3, [pc, #84]	@ (8000fa8 <MX_I2C1_Init+0x74>)
 8000f52:	2200      	movs	r2, #0
 8000f54:	611a      	str	r2, [r3, #16]
  hi2c1.Init.OwnAddress2 = 0;
 8000f56:	4b14      	ldr	r3, [pc, #80]	@ (8000fa8 <MX_I2C1_Init+0x74>)
 8000f58:	2200      	movs	r2, #0
 8000f5a:	615a      	str	r2, [r3, #20]
  hi2c1.Init.OwnAddress2Masks = I2C_OA2_NOMASK;
 8000f5c:	4b12      	ldr	r3, [pc, #72]	@ (8000fa8 <MX_I2C1_Init+0x74>)
 8000f5e:	2200      	movs	r2, #0
 8000f60:	619a      	str	r2, [r3, #24]
  hi2c1.Init.GeneralCallMode = I2C_GENERALCALL_DISABLE;
 8000f62:	4b11      	ldr	r3, [pc, #68]	@ (8000fa8 <MX_I2C1_Init+0x74>)
 8000f64:	2200      	movs	r2, #0
 8000f66:	61da      	str	r2, [r3, #28]
  hi2c1.Init.NoStretchMode = I2C_NOSTRETCH_DISABLE;
 8000f68:	4b0f      	ldr	r3, [pc, #60]	@ (8000fa8 <MX_I2C1_Init+0x74>)
 8000f6a:	2200      	movs	r2, #0
 8000f6c:	621a      	str	r2, [r3, #32]
  if (HAL_I2C_Init(&hi2c1) != HAL_OK)
 8000f6e:	480e      	ldr	r0, [pc, #56]	@ (8000fa8 <MX_I2C1_Init+0x74>)
 8000f70:	f000 fdf8 	bl	8001b64 <HAL_I2C_Init>
 8000f74:	4603      	mov	r3, r0
 8000f76:	2b00      	cmp	r3, #0
 8000f78:	d001      	beq.n	8000f7e <MX_I2C1_Init+0x4a>
  {
    Error_Handler();
 8000f7a:	f000 f8c9 	bl	8001110 <Error_Handler>
  }

  /** Configure Analogue filter
  */
  if (HAL_I2CEx_ConfigAnalogFilter(&hi2c1, I2C_ANALOGFILTER_ENABLE) != HAL_OK)
 8000f7e:	2100      	movs	r1, #0
 8000f80:	4809      	ldr	r0, [pc, #36]	@ (8000fa8 <MX_I2C1_Init+0x74>)
 8000f82:	f001 f9bd 	bl	8002300 <HAL_I2CEx_ConfigAnalogFilter>
 8000f86:	4603      	mov	r3, r0
 8000f88:	2b00      	cmp	r3, #0
 8000f8a:	d001      	beq.n	8000f90 <MX_I2C1_Init+0x5c>
  {
    Error_Handler();
 8000f8c:	f000 f8c0 	bl	8001110 <Error_Handler>
  }

  /** Configure Digital filter
  */
  if (HAL_I2CEx_ConfigDigitalFilter(&hi2c1, 0) != HAL_OK)
 8000f90:	2100      	movs	r1, #0
 8000f92:	4805      	ldr	r0, [pc, #20]	@ (8000fa8 <MX_I2C1_Init+0x74>)
 8000f94:	f001 f9ff 	bl	8002396 <HAL_I2CEx_ConfigDigitalFilter>
 8000f98:	4603      	mov	r3, r0
 8000f9a:	2b00      	cmp	r3, #0
 8000f9c:	d001      	beq.n	8000fa2 <MX_I2C1_Init+0x6e>
  {
    Error_Handler();
 8000f9e:	f000 f8b7 	bl	8001110 <Error_Handler>
  }
  /* USER CODE BEGIN I2C1_Init 2 */

  /* USER CODE END I2C1_Init 2 */

}
 8000fa2:	bf00      	nop
 8000fa4:	bd80      	pop	{r7, pc}
 8000fa6:	bf00      	nop
 8000fa8:	20000138 	.word	0x20000138
 8000fac:	40005400 	.word	0x40005400
 8000fb0:	40b285c2 	.word	0x40b285c2

08000fb4 <MX_LPUART1_UART_Init>:
  * @brief LPUART1 Initialization Function
  * @param None
  * @retval None
  */
static void MX_LPUART1_UART_Init(void)
{
 8000fb4:	b580      	push	{r7, lr}
 8000fb6:	af00      	add	r7, sp, #0
  /* USER CODE END LPUART1_Init 0 */

  /* USER CODE BEGIN LPUART1_Init 1 */

  /* USER CODE END LPUART1_Init 1 */
  hlpuart1.Instance = LPUART1;
 8000fb8:	4b20      	ldr	r3, [pc, #128]	@ (800103c <MX_LPUART1_UART_Init+0x88>)
 8000fba:	4a21      	ldr	r2, [pc, #132]	@ (8001040 <MX_LPUART1_UART_Init+0x8c>)
 8000fbc:	601a      	str	r2, [r3, #0]
  hlpuart1.Init.BaudRate = 209700;
 8000fbe:	4b1f      	ldr	r3, [pc, #124]	@ (800103c <MX_LPUART1_UART_Init+0x88>)
 8000fc0:	4a20      	ldr	r2, [pc, #128]	@ (8001044 <MX_LPUART1_UART_Init+0x90>)
 8000fc2:	605a      	str	r2, [r3, #4]
  hlpuart1.Init.WordLength = UART_WORDLENGTH_8B;
 8000fc4:	4b1d      	ldr	r3, [pc, #116]	@ (800103c <MX_LPUART1_UART_Init+0x88>)
 8000fc6:	2200      	movs	r2, #0
 8000fc8:	609a      	str	r2, [r3, #8]
  hlpuart1.Init.StopBits = UART_STOPBITS_1;
 8000fca:	4b1c      	ldr	r3, [pc, #112]	@ (800103c <MX_LPUART1_UART_Init+0x88>)
 8000fcc:	2200      	movs	r2, #0
 8000fce:	60da      	str	r2, [r3, #12]
  hlpuart1.Init.Parity = UART_PARITY_NONE;
 8000fd0:	4b1a      	ldr	r3, [pc, #104]	@ (800103c <MX_LPUART1_UART_Init+0x88>)
 8000fd2:	2200      	movs	r2, #0
 8000fd4:	611a      	str	r2, [r3, #16]
  hlpuart1.Init.Mode = UART_MODE_TX_RX;
 8000fd6:	4b19      	ldr	r3, [pc, #100]	@ (800103c <MX_LPUART1_UART_Init+0x88>)
 8000fd8:	220c      	movs	r2, #12
 8000fda:	615a      	str	r2, [r3, #20]
  hlpuart1.Init.HwFlowCtl = UART_HWCONTROL_NONE;
 8000fdc:	4b17      	ldr	r3, [pc, #92]	@ (800103c <MX_LPUART1_UART_Init+0x88>)
 8000fde:	2200      	movs	r2, #0
 8000fe0:	619a      	str	r2, [r3, #24]
  hlpuart1.Init.OneBitSampling = UART_ONE_BIT_SAMPLE_DISABLE;
 8000fe2:	4b16      	ldr	r3, [pc, #88]	@ (800103c <MX_LPUART1_UART_Init+0x88>)
 8000fe4:	2200      	movs	r2, #0
 8000fe6:	621a      	str	r2, [r3, #32]
  hlpuart1.Init.ClockPrescaler = UART_PRESCALER_DIV1;
 8000fe8:	4b14      	ldr	r3, [pc, #80]	@ (800103c <MX_LPUART1_UART_Init+0x88>)
 8000fea:	2200      	movs	r2, #0
 8000fec:	625a      	str	r2, [r3, #36]	@ 0x24
  hlpuart1.AdvancedInit.AdvFeatureInit = UART_ADVFEATURE_NO_INIT;
 8000fee:	4b13      	ldr	r3, [pc, #76]	@ (800103c <MX_LPUART1_UART_Init+0x88>)
 8000ff0:	2200      	movs	r2, #0
 8000ff2:	629a      	str	r2, [r3, #40]	@ 0x28
  if (HAL_UART_Init(&hlpuart1) != HAL_OK)
 8000ff4:	4811      	ldr	r0, [pc, #68]	@ (800103c <MX_LPUART1_UART_Init+0x88>)
 8000ff6:	f002 fa4b 	bl	8003490 <HAL_UART_Init>
 8000ffa:	4603      	mov	r3, r0
 8000ffc:	2b00      	cmp	r3, #0
 8000ffe:	d001      	beq.n	8001004 <MX_LPUART1_UART_Init+0x50>
  {
    Error_Handler();
 8001000:	f000 f886 	bl	8001110 <Error_Handler>
  }
  if (HAL_UARTEx_SetTxFifoThreshold(&hlpuart1, UART_TXFIFO_THRESHOLD_1_8) != HAL_OK)
 8001004:	2100      	movs	r1, #0
 8001006:	480d      	ldr	r0, [pc, #52]	@ (800103c <MX_LPUART1_UART_Init+0x88>)
 8001008:	f002 ffe6 	bl	8003fd8 <HAL_UARTEx_SetTxFifoThreshold>
 800100c:	4603      	mov	r3, r0
 800100e:	2b00      	cmp	r3, #0
 8001010:	d001      	beq.n	8001016 <MX_LPUART1_UART_Init+0x62>
  {
    Error_Handler();
 8001012:	f000 f87d 	bl	8001110 <Error_Handler>
  }
  if (HAL_UARTEx_SetRxFifoThreshold(&hlpuart1, UART_RXFIFO_THRESHOLD_1_8) != HAL_OK)
 8001016:	2100      	movs	r1, #0
 8001018:	4808      	ldr	r0, [pc, #32]	@ (800103c <MX_LPUART1_UART_Init+0x88>)
 800101a:	f003 f81b 	bl	8004054 <HAL_UARTEx_SetRxFifoThreshold>
 800101e:	4603      	mov	r3, r0
 8001020:	2b00      	cmp	r3, #0
 8001022:	d001      	beq.n	8001028 <MX_LPUART1_UART_Init+0x74>
  {
    Error_Handler();
 8001024:	f000 f874 	bl	8001110 <Error_Handler>
  }
  if (HAL_UARTEx_DisableFifoMode(&hlpuart1) != HAL_OK)
 8001028:	4804      	ldr	r0, [pc, #16]	@ (800103c <MX_LPUART1_UART_Init+0x88>)
 800102a:	f002 ff9c 	bl	8003f66 <HAL_UARTEx_DisableFifoMode>
 800102e:	4603      	mov	r3, r0
 8001030:	2b00      	cmp	r3, #0
 8001032:	d001      	beq.n	8001038 <MX_LPUART1_UART_Init+0x84>
  {
    Error_Handler();
 8001034:	f000 f86c 	bl	8001110 <Error_Handler>
  }
  /* USER CODE BEGIN LPUART1_Init 2 */

  /* USER CODE END LPUART1_Init 2 */

}
 8001038:	bf00      	nop
 800103a:	bd80      	pop	{r7, pc}
 800103c:	2000018c 	.word	0x2000018c
 8001040:	40008000 	.word	0x40008000
 8001044:	00033324 	.word	0x00033324

08001048 <MX_GPIO_Init>:
  * @brief GPIO Initialization Function
  * @param None
  * @retval None
  */
static void MX_GPIO_Init(void)
{
 8001048:	b580      	push	{r7, lr}
 800104a:	b08a      	sub	sp, #40	@ 0x28
 800104c:	af00      	add	r7, sp, #0
  GPIO_InitTypeDef GPIO_InitStruct = {0};
 800104e:	f107 0314 	add.w	r3, r7, #20
 8001052:	2200      	movs	r2, #0
 8001054:	601a      	str	r2, [r3, #0]
 8001056:	605a      	str	r2, [r3, #4]
 8001058:	609a      	str	r2, [r3, #8]
 800105a:	60da      	str	r2, [r3, #12]
 800105c:	611a      	str	r2, [r3, #16]
  /* USER CODE BEGIN MX_GPIO_Init_1 */

  /* USER CODE END MX_GPIO_Init_1 */

  /* GPIO Ports Clock Enable */
  __HAL_RCC_GPIOC_CLK_ENABLE();
 800105e:	4b2a      	ldr	r3, [pc, #168]	@ (8001108 <MX_GPIO_Init+0xc0>)
 8001060:	6cdb      	ldr	r3, [r3, #76]	@ 0x4c
 8001062:	4a29      	ldr	r2, [pc, #164]	@ (8001108 <MX_GPIO_Init+0xc0>)
 8001064:	f043 0304 	orr.w	r3, r3, #4
 8001068:	64d3      	str	r3, [r2, #76]	@ 0x4c
 800106a:	4b27      	ldr	r3, [pc, #156]	@ (8001108 <MX_GPIO_Init+0xc0>)
 800106c:	6cdb      	ldr	r3, [r3, #76]	@ 0x4c
 800106e:	f003 0304 	and.w	r3, r3, #4
 8001072:	613b      	str	r3, [r7, #16]
 8001074:	693b      	ldr	r3, [r7, #16]
  __HAL_RCC_GPIOF_CLK_ENABLE();
 8001076:	4b24      	ldr	r3, [pc, #144]	@ (8001108 <MX_GPIO_Init+0xc0>)
 8001078:	6cdb      	ldr	r3, [r3, #76]	@ 0x4c
 800107a:	4a23      	ldr	r2, [pc, #140]	@ (8001108 <MX_GPIO_Init+0xc0>)
 800107c:	f043 0320 	orr.w	r3, r3, #32
 8001080:	64d3      	str	r3, [r2, #76]	@ 0x4c
 8001082:	4b21      	ldr	r3, [pc, #132]	@ (8001108 <MX_GPIO_Init+0xc0>)
 8001084:	6cdb      	ldr	r3, [r3, #76]	@ 0x4c
 8001086:	f003 0320 	and.w	r3, r3, #32
 800108a:	60fb      	str	r3, [r7, #12]
 800108c:	68fb      	ldr	r3, [r7, #12]
  __HAL_RCC_GPIOA_CLK_ENABLE();
 800108e:	4b1e      	ldr	r3, [pc, #120]	@ (8001108 <MX_GPIO_Init+0xc0>)
 8001090:	6cdb      	ldr	r3, [r3, #76]	@ 0x4c
 8001092:	4a1d      	ldr	r2, [pc, #116]	@ (8001108 <MX_GPIO_Init+0xc0>)
 8001094:	f043 0301 	orr.w	r3, r3, #1
 8001098:	64d3      	str	r3, [r2, #76]	@ 0x4c
 800109a:	4b1b      	ldr	r3, [pc, #108]	@ (8001108 <MX_GPIO_Init+0xc0>)
 800109c:	6cdb      	ldr	r3, [r3, #76]	@ 0x4c
 800109e:	f003 0301 	and.w	r3, r3, #1
 80010a2:	60bb      	str	r3, [r7, #8]
 80010a4:	68bb      	ldr	r3, [r7, #8]
  __HAL_RCC_GPIOB_CLK_ENABLE();
 80010a6:	4b18      	ldr	r3, [pc, #96]	@ (8001108 <MX_GPIO_Init+0xc0>)
 80010a8:	6cdb      	ldr	r3, [r3, #76]	@ 0x4c
 80010aa:	4a17      	ldr	r2, [pc, #92]	@ (8001108 <MX_GPIO_Init+0xc0>)
 80010ac:	f043 0302 	orr.w	r3, r3, #2
 80010b0:	64d3      	str	r3, [r2, #76]	@ 0x4c
 80010b2:	4b15      	ldr	r3, [pc, #84]	@ (8001108 <MX_GPIO_Init+0xc0>)
 80010b4:	6cdb      	ldr	r3, [r3, #76]	@ 0x4c
 80010b6:	f003 0302 	and.w	r3, r3, #2
 80010ba:	607b      	str	r3, [r7, #4]
 80010bc:	687b      	ldr	r3, [r7, #4]

  /*Configure GPIO pin Output Level */
  HAL_GPIO_WritePin(LD2_GPIO_Port, LD2_Pin, GPIO_PIN_RESET);
 80010be:	2200      	movs	r2, #0
 80010c0:	2120      	movs	r1, #32
 80010c2:	f04f 4090 	mov.w	r0, #1207959552	@ 0x48000000
 80010c6:	f000 fd35 	bl	8001b34 <HAL_GPIO_WritePin>

  /*Configure GPIO pins : KEY_UP_Pin KEY_RIGHT_Pin KEY_LEFT_Pin KEY_DOWN_Pin */
  GPIO_InitStruct.Pin = KEY_UP_Pin|KEY_RIGHT_Pin|KEY_LEFT_Pin|KEY_DOWN_Pin;
 80010ca:	230f      	movs	r3, #15
 80010cc:	617b      	str	r3, [r7, #20]
  GPIO_InitStruct.Mode = GPIO_MODE_INPUT;
 80010ce:	2300      	movs	r3, #0
 80010d0:	61bb      	str	r3, [r7, #24]
  GPIO_InitStruct.Pull = GPIO_PULLUP;
 80010d2:	2301      	movs	r3, #1
 80010d4:	61fb      	str	r3, [r7, #28]
  HAL_GPIO_Init(GPIOC, &GPIO_InitStruct);
 80010d6:	f107 0314 	add.w	r3, r7, #20
 80010da:	4619      	mov	r1, r3
 80010dc:	480b      	ldr	r0, [pc, #44]	@ (800110c <MX_GPIO_Init+0xc4>)
 80010de:	f000 fba7 	bl	8001830 <HAL_GPIO_Init>

  /*Configure GPIO pin : LD2_Pin */
  GPIO_InitStruct.Pin = LD2_Pin;
 80010e2:	2320      	movs	r3, #32
 80010e4:	617b      	str	r3, [r7, #20]
  GPIO_InitStruct.Mode = GPIO_MODE_OUTPUT_PP;
 80010e6:	2301      	movs	r3, #1
 80010e8:	61bb      	str	r3, [r7, #24]
  GPIO_InitStruct.Pull = GPIO_NOPULL;
 80010ea:	2300      	movs	r3, #0
 80010ec:	61fb      	str	r3, [r7, #28]
  GPIO_InitStruct.Speed = GPIO_SPEED_FREQ_LOW;
 80010ee:	2300      	movs	r3, #0
 80010f0:	623b      	str	r3, [r7, #32]
  HAL_GPIO_Init(LD2_GPIO_Port, &GPIO_InitStruct);
 80010f2:	f107 0314 	add.w	r3, r7, #20
 80010f6:	4619      	mov	r1, r3
 80010f8:	f04f 4090 	mov.w	r0, #1207959552	@ 0x48000000
 80010fc:	f000 fb98 	bl	8001830 <HAL_GPIO_Init>

  /* USER CODE BEGIN MX_GPIO_Init_2 */

  /* USER CODE END MX_GPIO_Init_2 */
}
 8001100:	bf00      	nop
 8001102:	3728      	adds	r7, #40	@ 0x28
 8001104:	46bd      	mov	sp, r7
 8001106:	bd80      	pop	{r7, pc}
 8001108:	40021000 	.word	0x40021000
 800110c:	48000800 	.word	0x48000800

08001110 <Error_Handler>:
/**
  * @brief  This function is executed in case of error occurrence.
  * @retval None
  */
void Error_Handler(void)
{
 8001110:	b480      	push	{r7}
 8001112:	af00      	add	r7, sp, #0
  \details Disables IRQ interrupts by setting the I-bit in the CPSR.
           Can only be executed in Privileged modes.
 */
__STATIC_FORCEINLINE void __disable_irq(void)
{
  __ASM volatile ("cpsid i" : : : "memory");
 8001114:	b672      	cpsid	i
}
 8001116:	bf00      	nop
  /* USER CODE BEGIN Error_Handler_Debug */
  /* User can add his own implementation to report the HAL error return state */
  __disable_irq();
  while (1)
 8001118:	bf00      	nop
 800111a:	e7fd      	b.n	8001118 <Error_Handler+0x8>

0800111c <HAL_MspInit>:
 800111c:	b580      	push	{r7, lr}
 800111e:	b082      	sub	sp, #8
 8001120:	af00      	add	r7, sp, #0
 8001122:	4b0f      	ldr	r3, [pc, #60]	@ (8001160 <HAL_MspInit+0x44>)
 8001124:	6e1b      	ldr	r3, [r3, #96]	@ 0x60
 8001126:	4a0e      	ldr	r2, [pc, #56]	@ (8001160 <HAL_MspInit+0x44>)
 8001128:	f043 0301 	orr.w	r3, r3, #1
 800112c:	6613      	str	r3, [r2, #96]	@ 0x60
 800112e:	4b0c      	ldr	r3, [pc, #48]	@ (8001160 <HAL_MspInit+0x44>)
 8001130:	6e1b      	ldr	r3, [r3, #96]	@ 0x60
 8001132:	f003 0301 	and.w	r3, r3, #1
 8001136:	607b      	str	r3, [r7, #4]
 8001138:	687b      	ldr	r3, [r7, #4]
 800113a:	4b09      	ldr	r3, [pc, #36]	@ (8001160 <HAL_MspInit+0x44>)
 800113c:	6d9b      	ldr	r3, [r3, #88]	@ 0x58
 800113e:	4a08      	ldr	r2, [pc, #32]	@ (8001160 <HAL_MspInit+0x44>)
 8001140:	f043 5380 	orr.w	r3, r3, #268435456	@ 0x10000000
 8001144:	6593      	str	r3, [r2, #88]	@ 0x58
 8001146:	4b06      	ldr	r3, [pc, #24]	@ (8001160 <HAL_MspInit+0x44>)
 8001148:	6d9b      	ldr	r3, [r3, #88]	@ 0x58
 800114a:	f003 5380 	and.w	r3, r3, #268435456	@ 0x10000000
 800114e:	603b      	str	r3, [r7, #0]
 8001150:	683b      	ldr	r3, [r7, #0]
 8001152:	f001 fa11 	bl	8002578 <HAL_PWREx_DisableUCPDDeadBattery>
 8001156:	bf00      	nop
 8001158:	3708      	adds	r7, #8
 800115a:	46bd      	mov	sp, r7
 800115c:	bd80      	pop	{r7, pc}
 800115e:	bf00      	nop
 8001160:	40021000 	.word	0x40021000

08001164 <HAL_I2C_MspInit>:
 8001164:	b580      	push	{r7, lr}
 8001166:	b09e      	sub	sp, #120	@ 0x78
 8001168:	af00      	add	r7, sp, #0
 800116a:	6078      	str	r0, [r7, #4]
 800116c:	f107 0364 	add.w	r3, r7, #100	@ 0x64
 8001170:	2200      	movs	r2, #0
 8001172:	601a      	str	r2, [r3, #0]
 8001174:	605a      	str	r2, [r3, #4]
 8001176:	609a      	str	r2, [r3, #8]
 8001178:	60da      	str	r2, [r3, #12]
 800117a:	611a      	str	r2, [r3, #16]
 800117c:	f107 0310 	add.w	r3, r7, #16
 8001180:	2254      	movs	r2, #84	@ 0x54
 8001182:	2100      	movs	r1, #0
 8001184:	4618      	mov	r0, r3
 8001186:	f003 f813 	bl	80041b0 <memset>
 800118a:	687b      	ldr	r3, [r7, #4]
 800118c:	681b      	ldr	r3, [r3, #0]
 800118e:	4a1f      	ldr	r2, [pc, #124]	@ (800120c <HAL_I2C_MspInit+0xa8>)
 8001190:	4293      	cmp	r3, r2
 8001192:	d136      	bne.n	8001202 <HAL_I2C_MspInit+0x9e>
 8001194:	2340      	movs	r3, #64	@ 0x40
 8001196:	613b      	str	r3, [r7, #16]
 8001198:	2300      	movs	r3, #0
 800119a:	62fb      	str	r3, [r7, #44]	@ 0x2c
 800119c:	f107 0310 	add.w	r3, r7, #16
 80011a0:	4618      	mov	r0, r3
 80011a2:	f001 ff27 	bl	8002ff4 <HAL_RCCEx_PeriphCLKConfig>
 80011a6:	4603      	mov	r3, r0
 80011a8:	2b00      	cmp	r3, #0
 80011aa:	d001      	beq.n	80011b0 <HAL_I2C_MspInit+0x4c>
 80011ac:	f7ff ffb0 	bl	8001110 <Error_Handler>
 80011b0:	4b17      	ldr	r3, [pc, #92]	@ (8001210 <HAL_I2C_MspInit+0xac>)
 80011b2:	6cdb      	ldr	r3, [r3, #76]	@ 0x4c
 80011b4:	4a16      	ldr	r2, [pc, #88]	@ (8001210 <HAL_I2C_MspInit+0xac>)
 80011b6:	f043 0302 	orr.w	r3, r3, #2
 80011ba:	64d3      	str	r3, [r2, #76]	@ 0x4c
 80011bc:	4b14      	ldr	r3, [pc, #80]	@ (8001210 <HAL_I2C_MspInit+0xac>)
 80011be:	6cdb      	ldr	r3, [r3, #76]	@ 0x4c
 80011c0:	f003 0302 	and.w	r3, r3, #2
 80011c4:	60fb      	str	r3, [r7, #12]
 80011c6:	68fb      	ldr	r3, [r7, #12]
 80011c8:	f44f 7340 	mov.w	r3, #768	@ 0x300
 80011cc:	667b      	str	r3, [r7, #100]	@ 0x64
 80011ce:	2312      	movs	r3, #18
 80011d0:	66bb      	str	r3, [r7, #104]	@ 0x68
 80011d2:	2300      	movs	r3, #0
 80011d4:	66fb      	str	r3, [r7, #108]	@ 0x6c
 80011d6:	2303      	movs	r3, #3
 80011d8:	673b      	str	r3, [r7, #112]	@ 0x70
 80011da:	2304      	movs	r3, #4
 80011dc:	677b      	str	r3, [r7, #116]	@ 0x74
 80011de:	f107 0364 	add.w	r3, r7, #100	@ 0x64
 80011e2:	4619      	mov	r1, r3
 80011e4:	480b      	ldr	r0, [pc, #44]	@ (8001214 <HAL_I2C_MspInit+0xb0>)
 80011e6:	f000 fb23 	bl	8001830 <HAL_GPIO_Init>
 80011ea:	4b09      	ldr	r3, [pc, #36]	@ (8001210 <HAL_I2C_MspInit+0xac>)
 80011ec:	6d9b      	ldr	r3, [r3, #88]	@ 0x58
 80011ee:	4a08      	ldr	r2, [pc, #32]	@ (8001210 <HAL_I2C_MspInit+0xac>)
 80011f0:	f443 1300 	orr.w	r3, r3, #2097152	@ 0x200000
 80011f4:	6593      	str	r3, [r2, #88]	@ 0x58
 80011f6:	4b06      	ldr	r3, [pc, #24]	@ (8001210 <HAL_I2C_MspInit+0xac>)
 80011f8:	6d9b      	ldr	r3, [r3, #88]	@ 0x58
 80011fa:	f403 1300 	and.w	r3, r3, #2097152	@ 0x200000
 80011fe:	60bb      	str	r3, [r7, #8]
 8001200:	68bb      	ldr	r3, [r7, #8]
 8001202:	bf00      	nop
 8001204:	3778      	adds	r7, #120	@ 0x78
 8001206:	46bd      	mov	sp, r7
 8001208:	bd80      	pop	{r7, pc}
 800120a:	bf00      	nop
 800120c:	40005400 	.word	0x40005400
 8001210:	40021000 	.word	0x40021000
 8001214:	48000400 	.word	0x48000400

08001218 <HAL_UART_MspInit>:
 8001218:	b580      	push	{r7, lr}
 800121a:	b09e      	sub	sp, #120	@ 0x78
 800121c:	af00      	add	r7, sp, #0
 800121e:	6078      	str	r0, [r7, #4]
 8001220:	f107 0364 	add.w	r3, r7, #100	@ 0x64
 8001224:	2200      	movs	r2, #0
 8001226:	601a      	str	r2, [r3, #0]
 8001228:	605a      	str	r2, [r3, #4]
 800122a:	609a      	str	r2, [r3, #8]
 800122c:	60da      	str	r2, [r3, #12]
 800122e:	611a      	str	r2, [r3, #16]
 8001230:	f107 0310 	add.w	r3, r7, #16
 8001234:	2254      	movs	r2, #84	@ 0x54
 8001236:	2100      	movs	r1, #0
 8001238:	4618      	mov	r0, r3
 800123a:	f002 ffb9 	bl	80041b0 <memset>
 800123e:	687b      	ldr	r3, [r7, #4]
 8001240:	681b      	ldr	r3, [r3, #0]
 8001242:	4a1f      	ldr	r2, [pc, #124]	@ (80012c0 <HAL_UART_MspInit+0xa8>)
 8001244:	4293      	cmp	r3, r2
 8001246:	d136      	bne.n	80012b6 <HAL_UART_MspInit+0x9e>
 8001248:	2320      	movs	r3, #32
 800124a:	613b      	str	r3, [r7, #16]
 800124c:	2300      	movs	r3, #0
 800124e:	62bb      	str	r3, [r7, #40]	@ 0x28
 8001250:	f107 0310 	add.w	r3, r7, #16
 8001254:	4618      	mov	r0, r3
 8001256:	f001 fecd 	bl	8002ff4 <HAL_RCCEx_PeriphCLKConfig>
 800125a:	4603      	mov	r3, r0
 800125c:	2b00      	cmp	r3, #0
 800125e:	d001      	beq.n	8001264 <HAL_UART_MspInit+0x4c>
 8001260:	f7ff ff56 	bl	8001110 <Error_Handler>
 8001264:	4b17      	ldr	r3, [pc, #92]	@ (80012c4 <HAL_UART_MspInit+0xac>)
 8001266:	6ddb      	ldr	r3, [r3, #92]	@ 0x5c
 8001268:	4a16      	ldr	r2, [pc, #88]	@ (80012c4 <HAL_UART_MspInit+0xac>)
 800126a:	f043 0301 	orr.w	r3, r3, #1
 800126e:	65d3      	str	r3, [r2, #92]	@ 0x5c
 8001270:	4b14      	ldr	r3, [pc, #80]	@ (80012c4 <HAL_UART_MspInit+0xac>)
 8001272:	6ddb      	ldr	r3, [r3, #92]	@ 0x5c
 8001274:	f003 0301 	and.w	r3, r3, #1
 8001278:	60fb      	str	r3, [r7, #12]
 800127a:	68fb      	ldr	r3, [r7, #12]
 800127c:	4b11      	ldr	r3, [pc, #68]	@ (80012c4 <HAL_UART_MspInit+0xac>)
 800127e:	6cdb      	ldr	r3, [r3, #76]	@ 0x4c
 8001280:	4a10      	ldr	r2, [pc, #64]	@ (80012c4 <HAL_UART_MspInit+0xac>)
 8001282:	f043 0301 	orr.w	r3, r3, #1
 8001286:	64d3      	str	r3, [r2, #76]	@ 0x4c
 8001288:	4b0e      	ldr	r3, [pc, #56]	@ (80012c4 <HAL_UART_MspInit+0xac>)
 800128a:	6cdb      	ldr	r3, [r3, #76]	@ 0x4c
 800128c:	f003 0301 	and.w	r3, r3, #1
 8001290:	60bb      	str	r3, [r7, #8]
 8001292:	68bb      	ldr	r3, [r7, #8]
 8001294:	230c      	movs	r3, #12
 8001296:	667b      	str	r3, [r7, #100]	@ 0x64
 8001298:	2302      	movs	r3, #2
 800129a:	66bb      	str	r3, [r7, #104]	@ 0x68
 800129c:	2300      	movs	r3, #0
 800129e:	66fb      	str	r3, [r7, #108]	@ 0x6c
 80012a0:	2300      	movs	r3, #0
 80012a2:	673b      	str	r3, [r7, #112]	@ 0x70
 80012a4:	230c      	movs	r3, #12
 80012a6:	677b      	str	r3, [r7, #116]	@ 0x74
 80012a8:	f107 0364 	add.w	r3, r7, #100	@ 0x64
 80012ac:	4619      	mov	r1, r3
 80012ae:	f04f 4090 	mov.w	r0, #1207959552	@ 0x48000000
 80012b2:	f000 fabd 	bl	8001830 <HAL_GPIO_Init>
 80012b6:	bf00      	nop
 80012b8:	3778      	adds	r7, #120	@ 0x78
 80012ba:	46bd      	mov	sp, r7
 80012bc:	bd80      	pop	{r7, pc}
 80012be:	bf00      	nop
 80012c0:	40008000 	.word	0x40008000
 80012c4:	40021000 	.word	0x40021000

080012c8 <NMI_Handler>:
/******************************************************************************/
/**
  * @brief This function handles Non maskable interrupt.
  */
void NMI_Handler(void)
{
 80012c8:	b480      	push	{r7}
 80012ca:	af00      	add	r7, sp, #0
  /* USER CODE BEGIN NonMaskableInt_IRQn 0 */

  /* USER CODE END NonMaskableInt_IRQn 0 */
  /* USER CODE BEGIN NonMaskableInt_IRQn 1 */
   while (1)
 80012cc:	bf00      	nop
 80012ce:	e7fd      	b.n	80012cc <NMI_Handler+0x4>

080012d0 <HardFault_Handler>:

/**
  * @brief This function handles Hard fault interrupt.
  */
void HardFault_Handler(void)
{
 80012d0:	b480      	push	{r7}
 80012d2:	af00      	add	r7, sp, #0
  /* USER CODE BEGIN HardFault_IRQn 0 */

  /* USER CODE END HardFault_IRQn 0 */
  while (1)
 80012d4:	bf00      	nop
 80012d6:	e7fd      	b.n	80012d4 <HardFault_Handler+0x4>

080012d8 <MemManage_Handler>:

/**
  * @brief This function handles Memory management fault.
  */
void MemManage_Handler(void)
{
 80012d8:	b480      	push	{r7}
 80012da:	af00      	add	r7, sp, #0
  /* USER CODE BEGIN MemoryManagement_IRQn 0 */

  /* USER CODE END MemoryManagement_IRQn 0 */
  while (1)
 80012dc:	bf00      	nop
 80012de:	e7fd      	b.n	80012dc <MemManage_Handler+0x4>

080012e0 <BusFault_Handler>:

/**
  * @brief This function handles Prefetch fault, memory access fault.
  */
void BusFault_Handler(void)
{
 80012e0:	b480      	push	{r7}
 80012e2:	af00      	add	r7, sp, #0
  /* USER CODE BEGIN BusFault_IRQn 0 */

  /* USER CODE END BusFault_IRQn 0 */
  while (1)
 80012e4:	bf00      	nop
 80012e6:	e7fd      	b.n	80012e4 <BusFault_Handler+0x4>

080012e8 <UsageFault_Handler>:

/**
  * @brief This function handles Undefined instruction or illegal state.
  */
void UsageFault_Handler(void)
{
 80012e8:	b480      	push	{r7}
 80012ea:	af00      	add	r7, sp, #0
  /* USER CODE BEGIN UsageFault_IRQn 0 */

  /* USER CODE END UsageFault_IRQn 0 */
  while (1)
 80012ec:	bf00      	nop
 80012ee:	e7fd      	b.n	80012ec <UsageFault_Handler+0x4>

080012f0 <SVC_Handler>:

/**
  * @brief This function handles System service call via SWI instruction.
  */
void SVC_Handler(void)
{
 80012f0:	b480      	push	{r7}
 80012f2:	af00      	add	r7, sp, #0

  /* USER CODE END SVCall_IRQn 0 */
  /* USER CODE BEGIN SVCall_IRQn 1 */

  /* USER CODE END SVCall_IRQn 1 */
}
 80012f4:	bf00      	nop
 80012f6:	46bd      	mov	sp, r7
 80012f8:	f85d 7b04 	ldr.w	r7, [sp], #4
 80012fc:	4770      	bx	lr

080012fe <DebugMon_Handler>:

/**
  * @brief This function handles Debug monitor.
  */
void DebugMon_Handler(void)
{
 80012fe:	b480      	push	{r7}
 8001300:	af00      	add	r7, sp, #0

  /* USER CODE END DebugMonitor_IRQn 0 */
  /* USER CODE BEGIN DebugMonitor_IRQn 1 */

  /* USER CODE END DebugMonitor_IRQn 1 */
}
 8001302:	bf00      	nop
 8001304:	46bd      	mov	sp, r7
 8001306:	f85d 7b04 	ldr.w	r7, [sp], #4
 800130a:	4770      	bx	lr

0800130c <PendSV_Handler>:

/**
  * @brief This function handles Pendable request for system service.
  */
void PendSV_Handler(void)
{
 800130c:	b480      	push	{r7}
 800130e:	af00      	add	r7, sp, #0

  /* USER CODE END PendSV_IRQn 0 */
  /* USER CODE BEGIN PendSV_IRQn 1 */

  /* USER CODE END PendSV_IRQn 1 */
}
 8001310:	bf00      	nop
 8001312:	46bd      	mov	sp, r7
 8001314:	f85d 7b04 	ldr.w	r7, [sp], #4
 8001318:	4770      	bx	lr

0800131a <SysTick_Handler>:

/**
  * @brief This function handles System tick timer.
  */
void SysTick_Handler(void)
{
 800131a:	b580      	push	{r7, lr}
 800131c:	af00      	add	r7, sp, #0
  /* USER CODE BEGIN SysTick_IRQn 0 */

  /* USER CODE END SysTick_IRQn 0 */
  HAL_IncTick();
 800131e:	f000 f963 	bl	80015e8 <HAL_IncTick>
  /* USER CODE BEGIN SysTick_IRQn 1 */
  TimeoutProcessor();
 8001322:	f7ff fba5 	bl	8000a70 <TimeoutProcessor>
  /* USER CODE END SysTick_IRQn 1 */
}
 8001326:	bf00      	nop
 8001328:	bd80      	pop	{r7, pc}
	...

0800132c <GetKeyStates>:
KeyDataStruct keyUpStruct;
KeyDataStruct keyDownStruct;
KeyDataStruct keyRightStruct;
KeyDataStruct keyLeftStruct;

uint8_t GetKeyStates(void){
 800132c:	b480      	push	{r7}
 800132e:	b083      	sub	sp, #12
 8001330:	af00      	add	r7, sp, #0
  uint8_t states=(~GPIOC->IDR)&0xF;
 8001332:	4b46      	ldr	r3, [pc, #280]	@ (800144c <GetKeyStates+0x120>)
 8001334:	691b      	ldr	r3, [r3, #16]
 8001336:	b2db      	uxtb	r3, r3
 8001338:	43db      	mvns	r3, r3
 800133a:	b2db      	uxtb	r3, r3
 800133c:	f003 030f 	and.w	r3, r3, #15
 8001340:	71bb      	strb	r3, [r7, #6]
  uint8_t firstDetectedKey=0;
 8001342:	2300      	movs	r3, #0
 8001344:	71fb      	strb	r3, [r7, #7]
  if(states&KEY_UP_Pin){
 8001346:	79bb      	ldrb	r3, [r7, #6]
 8001348:	f003 0301 	and.w	r3, r3, #1
 800134c:	2b00      	cmp	r3, #0
 800134e:	d013      	beq.n	8001378 <GetKeyStates+0x4c>
    keyUpStruct.press_timer++;
 8001350:	4b3f      	ldr	r3, [pc, #252]	@ (8001450 <GetKeyStates+0x124>)
 8001352:	781b      	ldrb	r3, [r3, #0]
 8001354:	3301      	adds	r3, #1
 8001356:	b2da      	uxtb	r2, r3
 8001358:	4b3d      	ldr	r3, [pc, #244]	@ (8001450 <GetKeyStates+0x124>)
 800135a:	701a      	strb	r2, [r3, #0]
    if(keyUpStruct.press_timer>=PRESS_DETECT_TIME){
 800135c:	4b3c      	ldr	r3, [pc, #240]	@ (8001450 <GetKeyStates+0x124>)
 800135e:	781b      	ldrb	r3, [r3, #0]
 8001360:	2b09      	cmp	r3, #9
 8001362:	d90f      	bls.n	8001384 <GetKeyStates+0x58>
      if(keyUpStruct.key_state!=1){
 8001364:	4b3a      	ldr	r3, [pc, #232]	@ (8001450 <GetKeyStates+0x124>)
 8001366:	785b      	ldrb	r3, [r3, #1]
 8001368:	2b01      	cmp	r3, #1
 800136a:	d00b      	beq.n	8001384 <GetKeyStates+0x58>
        keyUpStruct.key_state=1;
 800136c:	4b38      	ldr	r3, [pc, #224]	@ (8001450 <GetKeyStates+0x124>)
 800136e:	2201      	movs	r2, #1
 8001370:	705a      	strb	r2, [r3, #1]
        firstDetectedKey=KEY_UP_Pin;
 8001372:	2301      	movs	r3, #1
 8001374:	71fb      	strb	r3, [r7, #7]
 8001376:	e005      	b.n	8001384 <GetKeyStates+0x58>
      }
    }
  }
  else{
    keyUpStruct.key_state=0;
 8001378:	4b35      	ldr	r3, [pc, #212]	@ (8001450 <GetKeyStates+0x124>)
 800137a:	2200      	movs	r2, #0
 800137c:	705a      	strb	r2, [r3, #1]
    keyUpStruct.press_timer=0;
 800137e:	4b34      	ldr	r3, [pc, #208]	@ (8001450 <GetKeyStates+0x124>)
 8001380:	2200      	movs	r2, #0
 8001382:	701a      	strb	r2, [r3, #0]
  }

  if(states&KEY_DOWN_Pin){
 8001384:	79bb      	ldrb	r3, [r7, #6]
 8001386:	f003 0308 	and.w	r3, r3, #8
 800138a:	2b00      	cmp	r3, #0
 800138c:	d013      	beq.n	80013b6 <GetKeyStates+0x8a>
    keyDownStruct.press_timer++;
 800138e:	4b31      	ldr	r3, [pc, #196]	@ (8001454 <GetKeyStates+0x128>)
 8001390:	781b      	ldrb	r3, [r3, #0]
 8001392:	3301      	adds	r3, #1
 8001394:	b2da      	uxtb	r2, r3
 8001396:	4b2f      	ldr	r3, [pc, #188]	@ (8001454 <GetKeyStates+0x128>)
 8001398:	701a      	strb	r2, [r3, #0]
    if(keyDownStruct.press_timer>=PRESS_DETECT_TIME){
 800139a:	4b2e      	ldr	r3, [pc, #184]	@ (8001454 <GetKeyStates+0x128>)
 800139c:	781b      	ldrb	r3, [r3, #0]
 800139e:	2b09      	cmp	r3, #9
 80013a0:	d90f      	bls.n	80013c2 <GetKeyStates+0x96>
      if(keyDownStruct.key_state!=1){
 80013a2:	4b2c      	ldr	r3, [pc, #176]	@ (8001454 <GetKeyStates+0x128>)
 80013a4:	785b      	ldrb	r3, [r3, #1]
 80013a6:	2b01      	cmp	r3, #1
 80013a8:	d00b      	beq.n	80013c2 <GetKeyStates+0x96>
        keyDownStruct.key_state=1;
 80013aa:	4b2a      	ldr	r3, [pc, #168]	@ (8001454 <GetKeyStates+0x128>)
 80013ac:	2201      	movs	r2, #1
 80013ae:	705a      	strb	r2, [r3, #1]
        firstDetectedKey=KEY_DOWN_Pin;
 80013b0:	2308      	movs	r3, #8
 80013b2:	71fb      	strb	r3, [r7, #7]
 80013b4:	e005      	b.n	80013c2 <GetKeyStates+0x96>
      }
    }
  }
  else{
    keyDownStruct.key_state=0;
 80013b6:	4b27      	ldr	r3, [pc, #156]	@ (8001454 <GetKeyStates+0x128>)
 80013b8:	2200      	movs	r2, #0
 80013ba:	705a      	strb	r2, [r3, #1]
    keyDownStruct.press_timer=0;
 80013bc:	4b25      	ldr	r3, [pc, #148]	@ (8001454 <GetKeyStates+0x128>)
 80013be:	2200      	movs	r2, #0
 80013c0:	701a      	strb	r2, [r3, #0]
  }

  if(states&KEY_RIGHT_Pin){
 80013c2:	79bb      	ldrb	r3, [r7, #6]
 80013c4:	f003 0302 	and.w	r3, r3, #2
 80013c8:	2b00      	cmp	r3, #0
 80013ca:	d013      	beq.n	80013f4 <GetKeyStates+0xc8>
    keyRightStruct.press_timer++;
 80013cc:	4b22      	ldr	r3, [pc, #136]	@ (8001458 <GetKeyStates+0x12c>)
 80013ce:	781b      	ldrb	r3, [r3, #0]
 80013d0:	3301      	adds	r3, #1
 80013d2:	b2da      	uxtb	r2, r3
 80013d4:	4b20      	ldr	r3, [pc, #128]	@ (8001458 <GetKeyStates+0x12c>)
 80013d6:	701a      	strb	r2, [r3, #0]
    if(keyRightStruct.press_timer>=PRESS_DETECT_TIME){
 80013d8:	4b1f      	ldr	r3, [pc, #124]	@ (8001458 <GetKeyStates+0x12c>)
 80013da:	781b      	ldrb	r3, [r3, #0]
 80013dc:	2b09      	cmp	r3, #9
 80013de:	d90f      	bls.n	8001400 <GetKeyStates+0xd4>
      if(keyRightStruct.key_state!=1){
 80013e0:	4b1d      	ldr	r3, [pc, #116]	@ (8001458 <GetKeyStates+0x12c>)
 80013e2:	785b      	ldrb	r3, [r3, #1]
 80013e4:	2b01      	cmp	r3, #1
 80013e6:	d00b      	beq.n	8001400 <GetKeyStates+0xd4>
        keyRightStruct.key_state=1;
 80013e8:	4b1b      	ldr	r3, [pc, #108]	@ (8001458 <GetKeyStates+0x12c>)
 80013ea:	2201      	movs	r2, #1
 80013ec:	705a      	strb	r2, [r3, #1]
        firstDetectedKey=KEY_RIGHT_Pin;
 80013ee:	2302      	movs	r3, #2
 80013f0:	71fb      	strb	r3, [r7, #7]
 80013f2:	e005      	b.n	8001400 <GetKeyStates+0xd4>
      }
    }
  }
  else{
    keyRightStruct.key_state=0;
 80013f4:	4b18      	ldr	r3, [pc, #96]	@ (8001458 <GetKeyStates+0x12c>)
 80013f6:	2200      	movs	r2, #0
 80013f8:	705a      	strb	r2, [r3, #1]
    keyRightStruct.press_timer=0;
 80013fa:	4b17      	ldr	r3, [pc, #92]	@ (8001458 <GetKeyStates+0x12c>)
 80013fc:	2200      	movs	r2, #0
 80013fe:	701a      	strb	r2, [r3, #0]
  }

  if(states&KEY_LEFT_Pin){
 8001400:	79bb      	ldrb	r3, [r7, #6]
 8001402:	f003 0304 	and.w	r3, r3, #4
 8001406:	2b00      	cmp	r3, #0
 8001408:	d013      	beq.n	8001432 <GetKeyStates+0x106>
    keyLeftStruct.press_timer++;
 800140a:	4b14      	ldr	r3, [pc, #80]	@ (800145c <GetKeyStates+0x130>)
 800140c:	781b      	ldrb	r3, [r3, #0]
 800140e:	3301      	adds	r3, #1
 8001410:	b2da      	uxtb	r2, r3
 8001412:	4b12      	ldr	r3, [pc, #72]	@ (800145c <GetKeyStates+0x130>)
 8001414:	701a      	strb	r2, [r3, #0]
    if(keyLeftStruct.press_timer>=PRESS_DETECT_TIME){
 8001416:	4b11      	ldr	r3, [pc, #68]	@ (800145c <GetKeyStates+0x130>)
 8001418:	781b      	ldrb	r3, [r3, #0]
 800141a:	2b09      	cmp	r3, #9
 800141c:	d90f      	bls.n	800143e <GetKeyStates+0x112>
      if(keyLeftStruct.key_state!=1){
 800141e:	4b0f      	ldr	r3, [pc, #60]	@ (800145c <GetKeyStates+0x130>)
 8001420:	785b      	ldrb	r3, [r3, #1]
 8001422:	2b01      	cmp	r3, #1
 8001424:	d00b      	beq.n	800143e <GetKeyStates+0x112>
        keyLeftStruct.key_state=1;
 8001426:	4b0d      	ldr	r3, [pc, #52]	@ (800145c <GetKeyStates+0x130>)
 8001428:	2201      	movs	r2, #1
 800142a:	705a      	strb	r2, [r3, #1]
        firstDetectedKey=KEY_LEFT_Pin;
 800142c:	2304      	movs	r3, #4
 800142e:	71fb      	strb	r3, [r7, #7]
 8001430:	e005      	b.n	800143e <GetKeyStates+0x112>
      }
    }
  }
  else{
    keyLeftStruct.key_state=0;
 8001432:	4b0a      	ldr	r3, [pc, #40]	@ (800145c <GetKeyStates+0x130>)
 8001434:	2200      	movs	r2, #0
 8001436:	705a      	strb	r2, [r3, #1]
    keyLeftStruct.press_timer=0;
 8001438:	4b08      	ldr	r3, [pc, #32]	@ (800145c <GetKeyStates+0x130>)
 800143a:	2200      	movs	r2, #0
 800143c:	701a      	strb	r2, [r3, #0]
  }
  return firstDetectedKey;
 800143e:	79fb      	ldrb	r3, [r7, #7]
}
 8001440:	4618      	mov	r0, r3
 8001442:	370c      	adds	r7, #12
 8001444:	46bd      	mov	sp, r7
 8001446:	f85d 7b04 	ldr.w	r7, [sp], #4
 800144a:	4770      	bx	lr
 800144c:	48000800 	.word	0x48000800
 8001450:	20000224 	.word	0x20000224
 8001454:	20000228 	.word	0x20000228
 8001458:	2000022c 	.word	0x2000022c
 800145c:	20000230 	.word	0x20000230

08001460 <_sbrk>:
 8001460:	b580      	push	{r7, lr}
 8001462:	b086      	sub	sp, #24
 8001464:	af00      	add	r7, sp, #0
 8001466:	6078      	str	r0, [r7, #4]
 8001468:	4a14      	ldr	r2, [pc, #80]	@ (80014bc <_sbrk+0x5c>)
 800146a:	4b15      	ldr	r3, [pc, #84]	@ (80014c0 <_sbrk+0x60>)
 800146c:	1ad3      	subs	r3, r2, r3
 800146e:	617b      	str	r3, [r7, #20]
 8001470:	697b      	ldr	r3, [r7, #20]
 8001472:	613b      	str	r3, [r7, #16]
 8001474:	4b13      	ldr	r3, [pc, #76]	@ (80014c4 <_sbrk+0x64>)
 8001476:	681b      	ldr	r3, [r3, #0]
 8001478:	2b00      	cmp	r3, #0
 800147a:	d102      	bne.n	8001482 <_sbrk+0x22>
 800147c:	4b11      	ldr	r3, [pc, #68]	@ (80014c4 <_sbrk+0x64>)
 800147e:	4a12      	ldr	r2, [pc, #72]	@ (80014c8 <_sbrk+0x68>)
 8001480:	601a      	str	r2, [r3, #0]
 8001482:	4b10      	ldr	r3, [pc, #64]	@ (80014c4 <_sbrk+0x64>)
 8001484:	681a      	ldr	r2, [r3, #0]
 8001486:	687b      	ldr	r3, [r7, #4]
 8001488:	4413      	add	r3, r2
 800148a:	693a      	ldr	r2, [r7, #16]
 800148c:	429a      	cmp	r2, r3
 800148e:	d207      	bcs.n	80014a0 <_sbrk+0x40>
 8001490:	f002 fe96 	bl	80041c0 <__errno>
 8001494:	4603      	mov	r3, r0
 8001496:	220c      	movs	r2, #12
 8001498:	601a      	str	r2, [r3, #0]
 800149a:	f04f 33ff 	mov.w	r3, #4294967295	@ 0xffffffff
 800149e:	e009      	b.n	80014b4 <_sbrk+0x54>
 80014a0:	4b08      	ldr	r3, [pc, #32]	@ (80014c4 <_sbrk+0x64>)
 80014a2:	681b      	ldr	r3, [r3, #0]
 80014a4:	60fb      	str	r3, [r7, #12]
 80014a6:	4b07      	ldr	r3, [pc, #28]	@ (80014c4 <_sbrk+0x64>)
 80014a8:	681a      	ldr	r2, [r3, #0]
 80014aa:	687b      	ldr	r3, [r7, #4]
 80014ac:	4413      	add	r3, r2
 80014ae:	4a05      	ldr	r2, [pc, #20]	@ (80014c4 <_sbrk+0x64>)
 80014b0:	6013      	str	r3, [r2, #0]
 80014b2:	68fb      	ldr	r3, [r7, #12]
 80014b4:	4618      	mov	r0, r3
 80014b6:	3718      	adds	r7, #24
 80014b8:	46bd      	mov	sp, r7
 80014ba:	bd80      	pop	{r7, pc}
 80014bc:	20020000 	.word	0x20020000
 80014c0:	00000400 	.word	0x00000400
 80014c4:	20000234 	.word	0x20000234
 80014c8:	20000388 	.word	0x20000388

080014cc <SystemInit>:
 80014cc:	b480      	push	{r7}
 80014ce:	af00      	add	r7, sp, #0
 80014d0:	4b06      	ldr	r3, [pc, #24]	@ (80014ec <SystemInit+0x20>)
 80014d2:	f8d3 3088 	ldr.w	r3, [r3, #136]	@ 0x88
 80014d6:	4a05      	ldr	r2, [pc, #20]	@ (80014ec <SystemInit+0x20>)
 80014d8:	f443 0370 	orr.w	r3, r3, #15728640	@ 0xf00000
 80014dc:	f8c2 3088 	str.w	r3, [r2, #136]	@ 0x88
 80014e0:	bf00      	nop
 80014e2:	46bd      	mov	sp, r7
 80014e4:	f85d 7b04 	ldr.w	r7, [sp], #4
 80014e8:	4770      	bx	lr
 80014ea:	bf00      	nop
 80014ec:	e000ed00 	.word	0xe000ed00

080014f0 <Reset_Handler>:
 80014f0:	480d      	ldr	r0, [pc, #52]	@ (8001528 <LoopForever+0x2>)
 80014f2:	4685      	mov	sp, r0
 80014f4:	f7ff ffea 	bl	80014cc <SystemInit>
 80014f8:	480c      	ldr	r0, [pc, #48]	@ (800152c <LoopForever+0x6>)
 80014fa:	490d      	ldr	r1, [pc, #52]	@ (8001530 <LoopForever+0xa>)
 80014fc:	4a0d      	ldr	r2, [pc, #52]	@ (8001534 <LoopForever+0xe>)
 80014fe:	2300      	movs	r3, #0
 8001500:	e002      	b.n	8001508 <LoopCopyDataInit>

08001502 <CopyDataInit>:
 8001502:	58d4      	ldr	r4, [r2, r3]
 8001504:	50c4      	str	r4, [r0, r3]
 8001506:	3304      	adds	r3, #4

08001508 <LoopCopyDataInit>:
 8001508:	18c4      	adds	r4, r0, r3
 800150a:	428c      	cmp	r4, r1
 800150c:	d3f9      	bcc.n	8001502 <CopyDataInit>
 800150e:	4a0a      	ldr	r2, [pc, #40]	@ (8001538 <LoopForever+0x12>)
 8001510:	4c0a      	ldr	r4, [pc, #40]	@ (800153c <LoopForever+0x16>)
 8001512:	2300      	movs	r3, #0
 8001514:	e001      	b.n	800151a <LoopFillZerobss>

08001516 <FillZerobss>:
 8001516:	6013      	str	r3, [r2, #0]
 8001518:	3204      	adds	r2, #4

0800151a <LoopFillZerobss>:
 800151a:	42a2      	cmp	r2, r4
 800151c:	d3fb      	bcc.n	8001516 <FillZerobss>
 800151e:	f002 fe55 	bl	80041cc <__libc_init_array>
 8001522:	f7ff fc69 	bl	8000df8 <main>

08001526 <LoopForever>:
 8001526:	e7fe      	b.n	8001526 <LoopForever>
 8001528:	20020000 	.word	0x20020000
 800152c:	20000000 	.word	0x20000000
 8001530:	200000a0 	.word	0x200000a0
 8001534:	08004c18 	.word	0x08004c18
 8001538:	200000a0 	.word	0x200000a0
 800153c:	20000384 	.word	0x20000384

08001540 <ADC1_2_IRQHandler>:
 8001540:	e7fe      	b.n	8001540 <ADC1_2_IRQHandler>

08001542 <HAL_Init>:
 8001542:	b580      	push	{r7, lr}
 8001544:	b082      	sub	sp, #8
 8001546:	af00      	add	r7, sp, #0
 8001548:	2300      	movs	r3, #0
 800154a:	71fb      	strb	r3, [r7, #7]
 800154c:	2003      	movs	r0, #3
 800154e:	f000 f93d 	bl	80017cc <HAL_NVIC_SetPriorityGrouping>
 8001552:	2000      	movs	r0, #0
 8001554:	f000 f80e 	bl	8001574 <HAL_InitTick>
 8001558:	4603      	mov	r3, r0
 800155a:	2b00      	cmp	r3, #0
 800155c:	d002      	beq.n	8001564 <HAL_Init+0x22>
 800155e:	2301      	movs	r3, #1
 8001560:	71fb      	strb	r3, [r7, #7]
 8001562:	e001      	b.n	8001568 <HAL_Init+0x26>
 8001564:	f7ff fdda 	bl	800111c <HAL_MspInit>
 8001568:	79fb      	ldrb	r3, [r7, #7]
 800156a:	4618      	mov	r0, r3
 800156c:	3708      	adds	r7, #8
 800156e:	46bd      	mov	sp, r7
 8001570:	bd80      	pop	{r7, pc}
	...

08001574 <HAL_InitTick>:
 8001574:	b580      	push	{r7, lr}
 8001576:	b084      	sub	sp, #16
 8001578:	af00      	add	r7, sp, #0
 800157a:	6078      	str	r0, [r7, #4]
 800157c:	2300      	movs	r3, #0
 800157e:	73fb      	strb	r3, [r7, #15]
 8001580:	4b16      	ldr	r3, [pc, #88]	@ (80015dc <HAL_InitTick+0x68>)
 8001582:	681b      	ldr	r3, [r3, #0]
 8001584:	2b00      	cmp	r3, #0
 8001586:	d022      	beq.n	80015ce <HAL_InitTick+0x5a>
 8001588:	4b15      	ldr	r3, [pc, #84]	@ (80015e0 <HAL_InitTick+0x6c>)
 800158a:	681a      	ldr	r2, [r3, #0]
 800158c:	4b13      	ldr	r3, [pc, #76]	@ (80015dc <HAL_InitTick+0x68>)
 800158e:	681b      	ldr	r3, [r3, #0]
 8001590:	f44f 717a 	mov.w	r1, #1000	@ 0x3e8
 8001594:	fbb1 f3f3 	udiv	r3, r1, r3
 8001598:	fbb2 f3f3 	udiv	r3, r2, r3
 800159c:	4618      	mov	r0, r3
 800159e:	f000 f93a 	bl	8001816 <HAL_SYSTICK_Config>
 80015a2:	4603      	mov	r3, r0
 80015a4:	2b00      	cmp	r3, #0
 80015a6:	d10f      	bne.n	80015c8 <HAL_InitTick+0x54>
 80015a8:	687b      	ldr	r3, [r7, #4]
 80015aa:	2b0f      	cmp	r3, #15
 80015ac:	d809      	bhi.n	80015c2 <HAL_InitTick+0x4e>
 80015ae:	2200      	movs	r2, #0
 80015b0:	6879      	ldr	r1, [r7, #4]
 80015b2:	f04f 30ff 	mov.w	r0, #4294967295	@ 0xffffffff
 80015b6:	f000 f914 	bl	80017e2 <HAL_NVIC_SetPriority>
 80015ba:	4a0a      	ldr	r2, [pc, #40]	@ (80015e4 <HAL_InitTick+0x70>)
 80015bc:	687b      	ldr	r3, [r7, #4]
 80015be:	6013      	str	r3, [r2, #0]
 80015c0:	e007      	b.n	80015d2 <HAL_InitTick+0x5e>
 80015c2:	2301      	movs	r3, #1
 80015c4:	73fb      	strb	r3, [r7, #15]
 80015c6:	e004      	b.n	80015d2 <HAL_InitTick+0x5e>
 80015c8:	2301      	movs	r3, #1
 80015ca:	73fb      	strb	r3, [r7, #15]
 80015cc:	e001      	b.n	80015d2 <HAL_InitTick+0x5e>
 80015ce:	2301      	movs	r3, #1
 80015d0:	73fb      	strb	r3, [r7, #15]
 80015d2:	7bfb      	ldrb	r3, [r7, #15]
 80015d4:	4618      	mov	r0, r3
 80015d6:	3710      	adds	r7, #16
 80015d8:	46bd      	mov	sp, r7
 80015da:	bd80      	pop	{r7, pc}
 80015dc:	2000004c 	.word	0x2000004c
 80015e0:	20000044 	.word	0x20000044
 80015e4:	20000048 	.word	0x20000048

080015e8 <HAL_IncTick>:
 80015e8:	b480      	push	{r7}
 80015ea:	af00      	add	r7, sp, #0
 80015ec:	4b05      	ldr	r3, [pc, #20]	@ (8001604 <HAL_IncTick+0x1c>)
 80015ee:	681a      	ldr	r2, [r3, #0]
 80015f0:	4b05      	ldr	r3, [pc, #20]	@ (8001608 <HAL_IncTick+0x20>)
 80015f2:	681b      	ldr	r3, [r3, #0]
 80015f4:	4413      	add	r3, r2
 80015f6:	4a03      	ldr	r2, [pc, #12]	@ (8001604 <HAL_IncTick+0x1c>)
 80015f8:	6013      	str	r3, [r2, #0]
 80015fa:	bf00      	nop
 80015fc:	46bd      	mov	sp, r7
 80015fe:	f85d 7b04 	ldr.w	r7, [sp], #4
 8001602:	4770      	bx	lr
 8001604:	20000238 	.word	0x20000238
 8001608:	2000004c 	.word	0x2000004c

0800160c <HAL_GetTick>:
 800160c:	b480      	push	{r7}
 800160e:	af00      	add	r7, sp, #0
 8001610:	4b03      	ldr	r3, [pc, #12]	@ (8001620 <HAL_GetTick+0x14>)
 8001612:	681b      	ldr	r3, [r3, #0]
 8001614:	4618      	mov	r0, r3
 8001616:	46bd      	mov	sp, r7
 8001618:	f85d 7b04 	ldr.w	r7, [sp], #4
 800161c:	4770      	bx	lr
 800161e:	bf00      	nop
 8001620:	20000238 	.word	0x20000238

08001624 <HAL_Delay>:
 8001624:	b580      	push	{r7, lr}
 8001626:	b084      	sub	sp, #16
 8001628:	af00      	add	r7, sp, #0
 800162a:	6078      	str	r0, [r7, #4]
 800162c:	f7ff ffee 	bl	800160c <HAL_GetTick>
 8001630:	60b8      	str	r0, [r7, #8]
 8001632:	687b      	ldr	r3, [r7, #4]
 8001634:	60fb      	str	r3, [r7, #12]
 8001636:	68fb      	ldr	r3, [r7, #12]
 8001638:	f1b3 3fff 	cmp.w	r3, #4294967295	@ 0xffffffff
 800163c:	d004      	beq.n	8001648 <HAL_Delay+0x24>
 800163e:	4b09      	ldr	r3, [pc, #36]	@ (8001664 <HAL_Delay+0x40>)
 8001640:	681b      	ldr	r3, [r3, #0]
 8001642:	68fa      	ldr	r2, [r7, #12]
 8001644:	4413      	add	r3, r2
 8001646:	60fb      	str	r3, [r7, #12]
 8001648:	bf00      	nop
 800164a:	f7ff ffdf 	bl	800160c <HAL_GetTick>
 800164e:	4602      	mov	r2, r0
 8001650:	68bb      	ldr	r3, [r7, #8]
 8001652:	1ad3      	subs	r3, r2, r3
 8001654:	68fa      	ldr	r2, [r7, #12]
 8001656:	429a      	cmp	r2, r3
 8001658:	d8f7      	bhi.n	800164a <HAL_Delay+0x26>
 800165a:	bf00      	nop
 800165c:	bf00      	nop
 800165e:	3710      	adds	r7, #16
 8001660:	46bd      	mov	sp, r7
 8001662:	bd80      	pop	{r7, pc}
 8001664:	2000004c 	.word	0x2000004c

08001668 <__NVIC_SetPriorityGrouping>:
 8001668:	b480      	push	{r7}
 800166a:	b085      	sub	sp, #20
 800166c:	af00      	add	r7, sp, #0
 800166e:	6078      	str	r0, [r7, #4]
 8001670:	687b      	ldr	r3, [r7, #4]
 8001672:	f003 0307 	and.w	r3, r3, #7
 8001676:	60fb      	str	r3, [r7, #12]
 8001678:	4b0c      	ldr	r3, [pc, #48]	@ (80016ac <__NVIC_SetPriorityGrouping+0x44>)
 800167a:	68db      	ldr	r3, [r3, #12]
 800167c:	60bb      	str	r3, [r7, #8]
 800167e:	68ba      	ldr	r2, [r7, #8]
 8001680:	f64f 03ff 	movw	r3, #63743	@ 0xf8ff
 8001684:	4013      	ands	r3, r2
 8001686:	60bb      	str	r3, [r7, #8]
 8001688:	68fb      	ldr	r3, [r7, #12]
 800168a:	021a      	lsls	r2, r3, #8
 800168c:	68bb      	ldr	r3, [r7, #8]
 800168e:	4313      	orrs	r3, r2
 8001690:	f043 63bf 	orr.w	r3, r3, #100139008	@ 0x5f80000
 8001694:	f443 3300 	orr.w	r3, r3, #131072	@ 0x20000
 8001698:	60bb      	str	r3, [r7, #8]
 800169a:	4a04      	ldr	r2, [pc, #16]	@ (80016ac <__NVIC_SetPriorityGrouping+0x44>)
 800169c:	68bb      	ldr	r3, [r7, #8]
 800169e:	60d3      	str	r3, [r2, #12]
 80016a0:	bf00      	nop
 80016a2:	3714      	adds	r7, #20
 80016a4:	46bd      	mov	sp, r7
 80016a6:	f85d 7b04 	ldr.w	r7, [sp], #4
 80016aa:	4770      	bx	lr
 80016ac:	e000ed00 	.word	0xe000ed00

080016b0 <__NVIC_GetPriorityGrouping>:
 80016b0:	b480      	push	{r7}
 80016b2:	af00      	add	r7, sp, #0
 80016b4:	4b04      	ldr	r3, [pc, #16]	@ (80016c8 <__NVIC_GetPriorityGrouping+0x18>)
 80016b6:	68db      	ldr	r3, [r3, #12]
 80016b8:	0a1b      	lsrs	r3, r3, #8
 80016ba:	f003 0307 	and.w	r3, r3, #7
 80016be:	4618      	mov	r0, r3
 80016c0:	46bd      	mov	sp, r7
 80016c2:	f85d 7b04 	ldr.w	r7, [sp], #4
 80016c6:	4770      	bx	lr
 80016c8:	e000ed00 	.word	0xe000ed00

080016cc <__NVIC_SetPriority>:
 80016cc:	b480      	push	{r7}
 80016ce:	b083      	sub	sp, #12
 80016d0:	af00      	add	r7, sp, #0
 80016d2:	4603      	mov	r3, r0
 80016d4:	6039      	str	r1, [r7, #0]
 80016d6:	71fb      	strb	r3, [r7, #7]
 80016d8:	f997 3007 	ldrsb.w	r3, [r7, #7]
 80016dc:	2b00      	cmp	r3, #0
 80016de:	db0a      	blt.n	80016f6 <__NVIC_SetPriority+0x2a>
 80016e0:	683b      	ldr	r3, [r7, #0]
 80016e2:	b2da      	uxtb	r2, r3
 80016e4:	490c      	ldr	r1, [pc, #48]	@ (8001718 <__NVIC_SetPriority+0x4c>)
 80016e6:	f997 3007 	ldrsb.w	r3, [r7, #7]
 80016ea:	0112      	lsls	r2, r2, #4
 80016ec:	b2d2      	uxtb	r2, r2
 80016ee:	440b      	add	r3, r1
 80016f0:	f883 2300 	strb.w	r2, [r3, #768]	@ 0x300
 80016f4:	e00a      	b.n	800170c <__NVIC_SetPriority+0x40>
 80016f6:	683b      	ldr	r3, [r7, #0]
 80016f8:	b2da      	uxtb	r2, r3
 80016fa:	4908      	ldr	r1, [pc, #32]	@ (800171c <__NVIC_SetPriority+0x50>)
 80016fc:	79fb      	ldrb	r3, [r7, #7]
 80016fe:	f003 030f 	and.w	r3, r3, #15
 8001702:	3b04      	subs	r3, #4
 8001704:	0112      	lsls	r2, r2, #4
 8001706:	b2d2      	uxtb	r2, r2
 8001708:	440b      	add	r3, r1
 800170a:	761a      	strb	r2, [r3, #24]
 800170c:	bf00      	nop
 800170e:	370c      	adds	r7, #12
 8001710:	46bd      	mov	sp, r7
 8001712:	f85d 7b04 	ldr.w	r7, [sp], #4
 8001716:	4770      	bx	lr
 8001718:	e000e100 	.word	0xe000e100
 800171c:	e000ed00 	.word	0xe000ed00

08001720 <NVIC_EncodePriority>:
 8001720:	b480      	push	{r7}
 8001722:	b089      	sub	sp, #36	@ 0x24
 8001724:	af00      	add	r7, sp, #0
 8001726:	60f8      	str	r0, [r7, #12]
 8001728:	60b9      	str	r1, [r7, #8]
 800172a:	607a      	str	r2, [r7, #4]
 800172c:	68fb      	ldr	r3, [r7, #12]
 800172e:	f003 0307 	and.w	r3, r3, #7
 8001732:	61fb      	str	r3, [r7, #28]
 8001734:	69fb      	ldr	r3, [r7, #28]
 8001736:	f1c3 0307 	rsb	r3, r3, #7
 800173a:	2b04      	cmp	r3, #4
 800173c:	bf28      	it	cs
 800173e:	2304      	movcs	r3, #4
 8001740:	61bb      	str	r3, [r7, #24]
 8001742:	69fb      	ldr	r3, [r7, #28]
 8001744:	3304      	adds	r3, #4
 8001746:	2b06      	cmp	r3, #6
 8001748:	d902      	bls.n	8001750 <NVIC_EncodePriority+0x30>
 800174a:	69fb      	ldr	r3, [r7, #28]
 800174c:	3b03      	subs	r3, #3
 800174e:	e000      	b.n	8001752 <NVIC_EncodePriority+0x32>
 8001750:	2300      	movs	r3, #0
 8001752:	617b      	str	r3, [r7, #20]
 8001754:	f04f 32ff 	mov.w	r2, #4294967295	@ 0xffffffff
 8001758:	69bb      	ldr	r3, [r7, #24]
 800175a:	fa02 f303 	lsl.w	r3, r2, r3
 800175e:	43da      	mvns	r2, r3
 8001760:	68bb      	ldr	r3, [r7, #8]
 8001762:	401a      	ands	r2, r3
 8001764:	697b      	ldr	r3, [r7, #20]
 8001766:	409a      	lsls	r2, r3
 8001768:	f04f 31ff 	mov.w	r1, #4294967295	@ 0xffffffff
 800176c:	697b      	ldr	r3, [r7, #20]
 800176e:	fa01 f303 	lsl.w	r3, r1, r3
 8001772:	43d9      	mvns	r1, r3
 8001774:	687b      	ldr	r3, [r7, #4]
 8001776:	400b      	ands	r3, r1
 8001778:	4313      	orrs	r3, r2
 800177a:	4618      	mov	r0, r3
 800177c:	3724      	adds	r7, #36	@ 0x24
 800177e:	46bd      	mov	sp, r7
 8001780:	f85d 7b04 	ldr.w	r7, [sp], #4
 8001784:	4770      	bx	lr
	...

08001788 <SysTick_Config>:
 8001788:	b580      	push	{r7, lr}
 800178a:	b082      	sub	sp, #8
 800178c:	af00      	add	r7, sp, #0
 800178e:	6078      	str	r0, [r7, #4]
 8001790:	687b      	ldr	r3, [r7, #4]
 8001792:	3b01      	subs	r3, #1
 8001794:	f1b3 7f80 	cmp.w	r3, #16777216	@ 0x1000000
 8001798:	d301      	bcc.n	800179e <SysTick_Config+0x16>
 800179a:	2301      	movs	r3, #1
 800179c:	e00f      	b.n	80017be <SysTick_Config+0x36>
 800179e:	4a0a      	ldr	r2, [pc, #40]	@ (80017c8 <SysTick_Config+0x40>)
 80017a0:	687b      	ldr	r3, [r7, #4]
 80017a2:	3b01      	subs	r3, #1
 80017a4:	6053      	str	r3, [r2, #4]
 80017a6:	210f      	movs	r1, #15
 80017a8:	f04f 30ff 	mov.w	r0, #4294967295	@ 0xffffffff
 80017ac:	f7ff ff8e 	bl	80016cc <__NVIC_SetPriority>
 80017b0:	4b05      	ldr	r3, [pc, #20]	@ (80017c8 <SysTick_Config+0x40>)
 80017b2:	2200      	movs	r2, #0
 80017b4:	609a      	str	r2, [r3, #8]
 80017b6:	4b04      	ldr	r3, [pc, #16]	@ (80017c8 <SysTick_Config+0x40>)
 80017b8:	2207      	movs	r2, #7
 80017ba:	601a      	str	r2, [r3, #0]
 80017bc:	2300      	movs	r3, #0
 80017be:	4618      	mov	r0, r3
 80017c0:	3708      	adds	r7, #8
 80017c2:	46bd      	mov	sp, r7
 80017c4:	bd80      	pop	{r7, pc}
 80017c6:	bf00      	nop
 80017c8:	e000e010 	.word	0xe000e010

080017cc <HAL_NVIC_SetPriorityGrouping>:
 80017cc:	b580      	push	{r7, lr}
 80017ce:	b082      	sub	sp, #8
 80017d0:	af00      	add	r7, sp, #0
 80017d2:	6078      	str	r0, [r7, #4]
 80017d4:	6878      	ldr	r0, [r7, #4]
 80017d6:	f7ff ff47 	bl	8001668 <__NVIC_SetPriorityGrouping>
 80017da:	bf00      	nop
 80017dc:	3708      	adds	r7, #8
 80017de:	46bd      	mov	sp, r7
 80017e0:	bd80      	pop	{r7, pc}

080017e2 <HAL_NVIC_SetPriority>:
 80017e2:	b580      	push	{r7, lr}
 80017e4:	b086      	sub	sp, #24
 80017e6:	af00      	add	r7, sp, #0
 80017e8:	4603      	mov	r3, r0
 80017ea:	60b9      	str	r1, [r7, #8]
 80017ec:	607a      	str	r2, [r7, #4]
 80017ee:	73fb      	strb	r3, [r7, #15]
 80017f0:	f7ff ff5e 	bl	80016b0 <__NVIC_GetPriorityGrouping>
 80017f4:	6178      	str	r0, [r7, #20]
 80017f6:	687a      	ldr	r2, [r7, #4]
 80017f8:	68b9      	ldr	r1, [r7, #8]
 80017fa:	6978      	ldr	r0, [r7, #20]
 80017fc:	f7ff ff90 	bl	8001720 <NVIC_EncodePriority>
 8001800:	4602      	mov	r2, r0
 8001802:	f997 300f 	ldrsb.w	r3, [r7, #15]
 8001806:	4611      	mov	r1, r2
 8001808:	4618      	mov	r0, r3
 800180a:	f7ff ff5f 	bl	80016cc <__NVIC_SetPriority>
 800180e:	bf00      	nop
 8001810:	3718      	adds	r7, #24
 8001812:	46bd      	mov	sp, r7
 8001814:	bd80      	pop	{r7, pc}

08001816 <HAL_SYSTICK_Config>:
 8001816:	b580      	push	{r7, lr}
 8001818:	b082      	sub	sp, #8
 800181a:	af00      	add	r7, sp, #0
 800181c:	6078      	str	r0, [r7, #4]
 800181e:	6878      	ldr	r0, [r7, #4]
 8001820:	f7ff ffb2 	bl	8001788 <SysTick_Config>
 8001824:	4603      	mov	r3, r0
 8001826:	4618      	mov	r0, r3
 8001828:	3708      	adds	r7, #8
 800182a:	46bd      	mov	sp, r7
 800182c:	bd80      	pop	{r7, pc}
	...

08001830 <HAL_GPIO_Init>:
 8001830:	b480      	push	{r7}
 8001832:	b087      	sub	sp, #28
 8001834:	af00      	add	r7, sp, #0
 8001836:	6078      	str	r0, [r7, #4]
 8001838:	6039      	str	r1, [r7, #0]
 800183a:	2300      	movs	r3, #0
 800183c:	617b      	str	r3, [r7, #20]
 800183e:	e15a      	b.n	8001af6 <HAL_GPIO_Init+0x2c6>
 8001840:	683b      	ldr	r3, [r7, #0]
 8001842:	681a      	ldr	r2, [r3, #0]
 8001844:	2101      	movs	r1, #1
 8001846:	697b      	ldr	r3, [r7, #20]
 8001848:	fa01 f303 	lsl.w	r3, r1, r3
 800184c:	4013      	ands	r3, r2
 800184e:	60fb      	str	r3, [r7, #12]
 8001850:	68fb      	ldr	r3, [r7, #12]
 8001852:	2b00      	cmp	r3, #0
 8001854:	f000 814c 	beq.w	8001af0 <HAL_GPIO_Init+0x2c0>
 8001858:	683b      	ldr	r3, [r7, #0]
 800185a:	685b      	ldr	r3, [r3, #4]
 800185c:	f003 0303 	and.w	r3, r3, #3
 8001860:	2b01      	cmp	r3, #1
 8001862:	d005      	beq.n	8001870 <HAL_GPIO_Init+0x40>
 8001864:	683b      	ldr	r3, [r7, #0]
 8001866:	685b      	ldr	r3, [r3, #4]
 8001868:	f003 0303 	and.w	r3, r3, #3
 800186c:	2b02      	cmp	r3, #2
 800186e:	d130      	bne.n	80018d2 <HAL_GPIO_Init+0xa2>
 8001870:	687b      	ldr	r3, [r7, #4]
 8001872:	689b      	ldr	r3, [r3, #8]
 8001874:	613b      	str	r3, [r7, #16]
 8001876:	697b      	ldr	r3, [r7, #20]
 8001878:	005b      	lsls	r3, r3, #1
 800187a:	2203      	movs	r2, #3
 800187c:	fa02 f303 	lsl.w	r3, r2, r3
 8001880:	43db      	mvns	r3, r3
 8001882:	693a      	ldr	r2, [r7, #16]
 8001884:	4013      	ands	r3, r2
 8001886:	613b      	str	r3, [r7, #16]
 8001888:	683b      	ldr	r3, [r7, #0]
 800188a:	68da      	ldr	r2, [r3, #12]
 800188c:	697b      	ldr	r3, [r7, #20]
 800188e:	005b      	lsls	r3, r3, #1
 8001890:	fa02 f303 	lsl.w	r3, r2, r3
 8001894:	693a      	ldr	r2, [r7, #16]
 8001896:	4313      	orrs	r3, r2
 8001898:	613b      	str	r3, [r7, #16]
 800189a:	687b      	ldr	r3, [r7, #4]
 800189c:	693a      	ldr	r2, [r7, #16]
 800189e:	609a      	str	r2, [r3, #8]
 80018a0:	687b      	ldr	r3, [r7, #4]
 80018a2:	685b      	ldr	r3, [r3, #4]
 80018a4:	613b      	str	r3, [r7, #16]
 80018a6:	2201      	movs	r2, #1
 80018a8:	697b      	ldr	r3, [r7, #20]
 80018aa:	fa02 f303 	lsl.w	r3, r2, r3
 80018ae:	43db      	mvns	r3, r3
 80018b0:	693a      	ldr	r2, [r7, #16]
 80018b2:	4013      	ands	r3, r2
 80018b4:	613b      	str	r3, [r7, #16]
 80018b6:	683b      	ldr	r3, [r7, #0]
 80018b8:	685b      	ldr	r3, [r3, #4]
 80018ba:	091b      	lsrs	r3, r3, #4
 80018bc:	f003 0201 	and.w	r2, r3, #1
 80018c0:	697b      	ldr	r3, [r7, #20]
 80018c2:	fa02 f303 	lsl.w	r3, r2, r3
 80018c6:	693a      	ldr	r2, [r7, #16]
 80018c8:	4313      	orrs	r3, r2
 80018ca:	613b      	str	r3, [r7, #16]
 80018cc:	687b      	ldr	r3, [r7, #4]
 80018ce:	693a      	ldr	r2, [r7, #16]
 80018d0:	605a      	str	r2, [r3, #4]
 80018d2:	683b      	ldr	r3, [r7, #0]
 80018d4:	685b      	ldr	r3, [r3, #4]
 80018d6:	f003 0303 	and.w	r3, r3, #3
 80018da:	2b03      	cmp	r3, #3
 80018dc:	d017      	beq.n	800190e <HAL_GPIO_Init+0xde>
 80018de:	687b      	ldr	r3, [r7, #4]
 80018e0:	68db      	ldr	r3, [r3, #12]
 80018e2:	613b      	str	r3, [r7, #16]
 80018e4:	697b      	ldr	r3, [r7, #20]
 80018e6:	005b      	lsls	r3, r3, #1
 80018e8:	2203      	movs	r2, #3
 80018ea:	fa02 f303 	lsl.w	r3, r2, r3
 80018ee:	43db      	mvns	r3, r3
 80018f0:	693a      	ldr	r2, [r7, #16]
 80018f2:	4013      	ands	r3, r2
 80018f4:	613b      	str	r3, [r7, #16]
 80018f6:	683b      	ldr	r3, [r7, #0]
 80018f8:	689a      	ldr	r2, [r3, #8]
 80018fa:	697b      	ldr	r3, [r7, #20]
 80018fc:	005b      	lsls	r3, r3, #1
 80018fe:	fa02 f303 	lsl.w	r3, r2, r3
 8001902:	693a      	ldr	r2, [r7, #16]
 8001904:	4313      	orrs	r3, r2
 8001906:	613b      	str	r3, [r7, #16]
 8001908:	687b      	ldr	r3, [r7, #4]
 800190a:	693a      	ldr	r2, [r7, #16]
 800190c:	60da      	str	r2, [r3, #12]
 800190e:	683b      	ldr	r3, [r7, #0]
 8001910:	685b      	ldr	r3, [r3, #4]
 8001912:	f003 0303 	and.w	r3, r3, #3
 8001916:	2b02      	cmp	r3, #2
 8001918:	d123      	bne.n	8001962 <HAL_GPIO_Init+0x132>
 800191a:	697b      	ldr	r3, [r7, #20]
 800191c:	08da      	lsrs	r2, r3, #3
 800191e:	687b      	ldr	r3, [r7, #4]
 8001920:	3208      	adds	r2, #8
 8001922:	f853 3022 	ldr.w	r3, [r3, r2, lsl #2]
 8001926:	613b      	str	r3, [r7, #16]
 8001928:	697b      	ldr	r3, [r7, #20]
 800192a:	f003 0307 	and.w	r3, r3, #7
 800192e:	009b      	lsls	r3, r3, #2
 8001930:	220f      	movs	r2, #15
 8001932:	fa02 f303 	lsl.w	r3, r2, r3
 8001936:	43db      	mvns	r3, r3
 8001938:	693a      	ldr	r2, [r7, #16]
 800193a:	4013      	ands	r3, r2
 800193c:	613b      	str	r3, [r7, #16]
 800193e:	683b      	ldr	r3, [r7, #0]
 8001940:	691a      	ldr	r2, [r3, #16]
 8001942:	697b      	ldr	r3, [r7, #20]
 8001944:	f003 0307 	and.w	r3, r3, #7
 8001948:	009b      	lsls	r3, r3, #2
 800194a:	fa02 f303 	lsl.w	r3, r2, r3
 800194e:	693a      	ldr	r2, [r7, #16]
 8001950:	4313      	orrs	r3, r2
 8001952:	613b      	str	r3, [r7, #16]
 8001954:	697b      	ldr	r3, [r7, #20]
 8001956:	08da      	lsrs	r2, r3, #3
 8001958:	687b      	ldr	r3, [r7, #4]
 800195a:	3208      	adds	r2, #8
 800195c:	6939      	ldr	r1, [r7, #16]
 800195e:	f843 1022 	str.w	r1, [r3, r2, lsl #2]
 8001962:	687b      	ldr	r3, [r7, #4]
 8001964:	681b      	ldr	r3, [r3, #0]
 8001966:	613b      	str	r3, [r7, #16]
 8001968:	697b      	ldr	r3, [r7, #20]
 800196a:	005b      	lsls	r3, r3, #1
 800196c:	2203      	movs	r2, #3
 800196e:	fa02 f303 	lsl.w	r3, r2, r3
 8001972:	43db      	mvns	r3, r3
 8001974:	693a      	ldr	r2, [r7, #16]
 8001976:	4013      	ands	r3, r2
 8001978:	613b      	str	r3, [r7, #16]
 800197a:	683b      	ldr	r3, [r7, #0]
 800197c:	685b      	ldr	r3, [r3, #4]
 800197e:	f003 0203 	and.w	r2, r3, #3
 8001982:	697b      	ldr	r3, [r7, #20]
 8001984:	005b      	lsls	r3, r3, #1
 8001986:	fa02 f303 	lsl.w	r3, r2, r3
 800198a:	693a      	ldr	r2, [r7, #16]
 800198c:	4313      	orrs	r3, r2
 800198e:	613b      	str	r3, [r7, #16]
 8001990:	687b      	ldr	r3, [r7, #4]
 8001992:	693a      	ldr	r2, [r7, #16]
 8001994:	601a      	str	r2, [r3, #0]
 8001996:	683b      	ldr	r3, [r7, #0]
 8001998:	685b      	ldr	r3, [r3, #4]
 800199a:	f403 3340 	and.w	r3, r3, #196608	@ 0x30000
 800199e:	2b00      	cmp	r3, #0
 80019a0:	f000 80a6 	beq.w	8001af0 <HAL_GPIO_Init+0x2c0>
 80019a4:	4b5b      	ldr	r3, [pc, #364]	@ (8001b14 <HAL_GPIO_Init+0x2e4>)
 80019a6:	6e1b      	ldr	r3, [r3, #96]	@ 0x60
 80019a8:	4a5a      	ldr	r2, [pc, #360]	@ (8001b14 <HAL_GPIO_Init+0x2e4>)
 80019aa:	f043 0301 	orr.w	r3, r3, #1
 80019ae:	6613      	str	r3, [r2, #96]	@ 0x60
 80019b0:	4b58      	ldr	r3, [pc, #352]	@ (8001b14 <HAL_GPIO_Init+0x2e4>)
 80019b2:	6e1b      	ldr	r3, [r3, #96]	@ 0x60
 80019b4:	f003 0301 	and.w	r3, r3, #1
 80019b8:	60bb      	str	r3, [r7, #8]
 80019ba:	68bb      	ldr	r3, [r7, #8]
 80019bc:	4a56      	ldr	r2, [pc, #344]	@ (8001b18 <HAL_GPIO_Init+0x2e8>)
 80019be:	697b      	ldr	r3, [r7, #20]
 80019c0:	089b      	lsrs	r3, r3, #2
 80019c2:	3302      	adds	r3, #2
 80019c4:	f852 3023 	ldr.w	r3, [r2, r3, lsl #2]
 80019c8:	613b      	str	r3, [r7, #16]
 80019ca:	697b      	ldr	r3, [r7, #20]
 80019cc:	f003 0303 	and.w	r3, r3, #3
 80019d0:	009b      	lsls	r3, r3, #2
 80019d2:	220f      	movs	r2, #15
 80019d4:	fa02 f303 	lsl.w	r3, r2, r3
 80019d8:	43db      	mvns	r3, r3
 80019da:	693a      	ldr	r2, [r7, #16]
 80019dc:	4013      	ands	r3, r2
 80019de:	613b      	str	r3, [r7, #16]
 80019e0:	687b      	ldr	r3, [r7, #4]
 80019e2:	f1b3 4f90 	cmp.w	r3, #1207959552	@ 0x48000000
 80019e6:	d01f      	beq.n	8001a28 <HAL_GPIO_Init+0x1f8>
 80019e8:	687b      	ldr	r3, [r7, #4]
 80019ea:	4a4c      	ldr	r2, [pc, #304]	@ (8001b1c <HAL_GPIO_Init+0x2ec>)
 80019ec:	4293      	cmp	r3, r2
 80019ee:	d019      	beq.n	8001a24 <HAL_GPIO_Init+0x1f4>
 80019f0:	687b      	ldr	r3, [r7, #4]
 80019f2:	4a4b      	ldr	r2, [pc, #300]	@ (8001b20 <HAL_GPIO_Init+0x2f0>)
 80019f4:	4293      	cmp	r3, r2
 80019f6:	d013      	beq.n	8001a20 <HAL_GPIO_Init+0x1f0>
 80019f8:	687b      	ldr	r3, [r7, #4]
 80019fa:	4a4a      	ldr	r2, [pc, #296]	@ (8001b24 <HAL_GPIO_Init+0x2f4>)
 80019fc:	4293      	cmp	r3, r2
 80019fe:	d00d      	beq.n	8001a1c <HAL_GPIO_Init+0x1ec>
 8001a00:	687b      	ldr	r3, [r7, #4]
 8001a02:	4a49      	ldr	r2, [pc, #292]	@ (8001b28 <HAL_GPIO_Init+0x2f8>)
 8001a04:	4293      	cmp	r3, r2
 8001a06:	d007      	beq.n	8001a18 <HAL_GPIO_Init+0x1e8>
 8001a08:	687b      	ldr	r3, [r7, #4]
 8001a0a:	4a48      	ldr	r2, [pc, #288]	@ (8001b2c <HAL_GPIO_Init+0x2fc>)
 8001a0c:	4293      	cmp	r3, r2
 8001a0e:	d101      	bne.n	8001a14 <HAL_GPIO_Init+0x1e4>
 8001a10:	2305      	movs	r3, #5
 8001a12:	e00a      	b.n	8001a2a <HAL_GPIO_Init+0x1fa>
 8001a14:	2306      	movs	r3, #6
 8001a16:	e008      	b.n	8001a2a <HAL_GPIO_Init+0x1fa>
 8001a18:	2304      	movs	r3, #4
 8001a1a:	e006      	b.n	8001a2a <HAL_GPIO_Init+0x1fa>
 8001a1c:	2303      	movs	r3, #3
 8001a1e:	e004      	b.n	8001a2a <HAL_GPIO_Init+0x1fa>
 8001a20:	2302      	movs	r3, #2
 8001a22:	e002      	b.n	8001a2a <HAL_GPIO_Init+0x1fa>
 8001a24:	2301      	movs	r3, #1
 8001a26:	e000      	b.n	8001a2a <HAL_GPIO_Init+0x1fa>
 8001a28:	2300      	movs	r3, #0
 8001a2a:	697a      	ldr	r2, [r7, #20]
 8001a2c:	f002 0203 	and.w	r2, r2, #3
 8001a30:	0092      	lsls	r2, r2, #2
 8001a32:	4093      	lsls	r3, r2
 8001a34:	693a      	ldr	r2, [r7, #16]
 8001a36:	4313      	orrs	r3, r2
 8001a38:	613b      	str	r3, [r7, #16]
 8001a3a:	4937      	ldr	r1, [pc, #220]	@ (8001b18 <HAL_GPIO_Init+0x2e8>)
 8001a3c:	697b      	ldr	r3, [r7, #20]
 8001a3e:	089b      	lsrs	r3, r3, #2
 8001a40:	3302      	adds	r3, #2
 8001a42:	693a      	ldr	r2, [r7, #16]
 8001a44:	f841 2023 	str.w	r2, [r1, r3, lsl #2]
 8001a48:	4b39      	ldr	r3, [pc, #228]	@ (8001b30 <HAL_GPIO_Init+0x300>)
 8001a4a:	689b      	ldr	r3, [r3, #8]
 8001a4c:	613b      	str	r3, [r7, #16]
 8001a4e:	68fb      	ldr	r3, [r7, #12]
 8001a50:	43db      	mvns	r3, r3
 8001a52:	693a      	ldr	r2, [r7, #16]
 8001a54:	4013      	ands	r3, r2
 8001a56:	613b      	str	r3, [r7, #16]
 8001a58:	683b      	ldr	r3, [r7, #0]
 8001a5a:	685b      	ldr	r3, [r3, #4]
 8001a5c:	f403 1380 	and.w	r3, r3, #1048576	@ 0x100000
 8001a60:	2b00      	cmp	r3, #0
 8001a62:	d003      	beq.n	8001a6c <HAL_GPIO_Init+0x23c>
 8001a64:	693a      	ldr	r2, [r7, #16]
 8001a66:	68fb      	ldr	r3, [r7, #12]
 8001a68:	4313      	orrs	r3, r2
 8001a6a:	613b      	str	r3, [r7, #16]
 8001a6c:	4a30      	ldr	r2, [pc, #192]	@ (8001b30 <HAL_GPIO_Init+0x300>)
 8001a6e:	693b      	ldr	r3, [r7, #16]
 8001a70:	6093      	str	r3, [r2, #8]
 8001a72:	4b2f      	ldr	r3, [pc, #188]	@ (8001b30 <HAL_GPIO_Init+0x300>)
 8001a74:	68db      	ldr	r3, [r3, #12]
 8001a76:	613b      	str	r3, [r7, #16]
 8001a78:	68fb      	ldr	r3, [r7, #12]
 8001a7a:	43db      	mvns	r3, r3
 8001a7c:	693a      	ldr	r2, [r7, #16]
 8001a7e:	4013      	ands	r3, r2
 8001a80:	613b      	str	r3, [r7, #16]
 8001a82:	683b      	ldr	r3, [r7, #0]
 8001a84:	685b      	ldr	r3, [r3, #4]
 8001a86:	f403 1300 	and.w	r3, r3, #2097152	@ 0x200000
 8001a8a:	2b00      	cmp	r3, #0
 8001a8c:	d003      	beq.n	8001a96 <HAL_GPIO_Init+0x266>
 8001a8e:	693a      	ldr	r2, [r7, #16]
 8001a90:	68fb      	ldr	r3, [r7, #12]
 8001a92:	4313      	orrs	r3, r2
 8001a94:	613b      	str	r3, [r7, #16]
 8001a96:	4a26      	ldr	r2, [pc, #152]	@ (8001b30 <HAL_GPIO_Init+0x300>)
 8001a98:	693b      	ldr	r3, [r7, #16]
 8001a9a:	60d3      	str	r3, [r2, #12]
 8001a9c:	4b24      	ldr	r3, [pc, #144]	@ (8001b30 <HAL_GPIO_Init+0x300>)
 8001a9e:	685b      	ldr	r3, [r3, #4]
 8001aa0:	613b      	str	r3, [r7, #16]
 8001aa2:	68fb      	ldr	r3, [r7, #12]
 8001aa4:	43db      	mvns	r3, r3
 8001aa6:	693a      	ldr	r2, [r7, #16]
 8001aa8:	4013      	ands	r3, r2
 8001aaa:	613b      	str	r3, [r7, #16]
 8001aac:	683b      	ldr	r3, [r7, #0]
 8001aae:	685b      	ldr	r3, [r3, #4]
 8001ab0:	f403 3300 	and.w	r3, r3, #131072	@ 0x20000
 8001ab4:	2b00      	cmp	r3, #0
 8001ab6:	d003      	beq.n	8001ac0 <HAL_GPIO_Init+0x290>
 8001ab8:	693a      	ldr	r2, [r7, #16]
 8001aba:	68fb      	ldr	r3, [r7, #12]
 8001abc:	4313      	orrs	r3, r2
 8001abe:	613b      	str	r3, [r7, #16]
 8001ac0:	4a1b      	ldr	r2, [pc, #108]	@ (8001b30 <HAL_GPIO_Init+0x300>)
 8001ac2:	693b      	ldr	r3, [r7, #16]
 8001ac4:	6053      	str	r3, [r2, #4]
 8001ac6:	4b1a      	ldr	r3, [pc, #104]	@ (8001b30 <HAL_GPIO_Init+0x300>)
 8001ac8:	681b      	ldr	r3, [r3, #0]
 8001aca:	613b      	str	r3, [r7, #16]
 8001acc:	68fb      	ldr	r3, [r7, #12]
 8001ace:	43db      	mvns	r3, r3
 8001ad0:	693a      	ldr	r2, [r7, #16]
 8001ad2:	4013      	ands	r3, r2
 8001ad4:	613b      	str	r3, [r7, #16]
 8001ad6:	683b      	ldr	r3, [r7, #0]
 8001ad8:	685b      	ldr	r3, [r3, #4]
 8001ada:	f403 3380 	and.w	r3, r3, #65536	@ 0x10000
 8001ade:	2b00      	cmp	r3, #0
 8001ae0:	d003      	beq.n	8001aea <HAL_GPIO_Init+0x2ba>
 8001ae2:	693a      	ldr	r2, [r7, #16]
 8001ae4:	68fb      	ldr	r3, [r7, #12]
 8001ae6:	4313      	orrs	r3, r2
 8001ae8:	613b      	str	r3, [r7, #16]
 8001aea:	4a11      	ldr	r2, [pc, #68]	@ (8001b30 <HAL_GPIO_Init+0x300>)
 8001aec:	693b      	ldr	r3, [r7, #16]
 8001aee:	6013      	str	r3, [r2, #0]
 8001af0:	697b      	ldr	r3, [r7, #20]
 8001af2:	3301      	adds	r3, #1
 8001af4:	617b      	str	r3, [r7, #20]
 8001af6:	683b      	ldr	r3, [r7, #0]
 8001af8:	681a      	ldr	r2, [r3, #0]
 8001afa:	697b      	ldr	r3, [r7, #20]
 8001afc:	fa22 f303 	lsr.w	r3, r2, r3
 8001b00:	2b00      	cmp	r3, #0
 8001b02:	f47f ae9d 	bne.w	8001840 <HAL_GPIO_Init+0x10>
 8001b06:	bf00      	nop
 8001b08:	bf00      	nop
 8001b0a:	371c      	adds	r7, #28
 8001b0c:	46bd      	mov	sp, r7
 8001b0e:	f85d 7b04 	ldr.w	r7, [sp], #4
 8001b12:	4770      	bx	lr
 8001b14:	40021000 	.word	0x40021000
 8001b18:	40010000 	.word	0x40010000
 8001b1c:	48000400 	.word	0x48000400
 8001b20:	48000800 	.word	0x48000800
 8001b24:	48000c00 	.word	0x48000c00
 8001b28:	48001000 	.word	0x48001000
 8001b2c:	48001400 	.word	0x48001400
 8001b30:	40010400 	.word	0x40010400

08001b34 <HAL_GPIO_WritePin>:
 8001b34:	b480      	push	{r7}
 8001b36:	b083      	sub	sp, #12
 8001b38:	af00      	add	r7, sp, #0
 8001b3a:	6078      	str	r0, [r7, #4]
 8001b3c:	460b      	mov	r3, r1
 8001b3e:	807b      	strh	r3, [r7, #2]
 8001b40:	4613      	mov	r3, r2
 8001b42:	707b      	strb	r3, [r7, #1]
 8001b44:	787b      	ldrb	r3, [r7, #1]
 8001b46:	2b00      	cmp	r3, #0
 8001b48:	d003      	beq.n	8001b52 <HAL_GPIO_WritePin+0x1e>
 8001b4a:	887a      	ldrh	r2, [r7, #2]
 8001b4c:	687b      	ldr	r3, [r7, #4]
 8001b4e:	619a      	str	r2, [r3, #24]
 8001b50:	e002      	b.n	8001b58 <HAL_GPIO_WritePin+0x24>
 8001b52:	887a      	ldrh	r2, [r7, #2]
 8001b54:	687b      	ldr	r3, [r7, #4]
 8001b56:	629a      	str	r2, [r3, #40]	@ 0x28
 8001b58:	bf00      	nop
 8001b5a:	370c      	adds	r7, #12
 8001b5c:	46bd      	mov	sp, r7
 8001b5e:	f85d 7b04 	ldr.w	r7, [sp], #4
 8001b62:	4770      	bx	lr

08001b64 <HAL_I2C_Init>:
 8001b64:	b580      	push	{r7, lr}
 8001b66:	b082      	sub	sp, #8
 8001b68:	af00      	add	r7, sp, #0
 8001b6a:	6078      	str	r0, [r7, #4]
 8001b6c:	687b      	ldr	r3, [r7, #4]
 8001b6e:	2b00      	cmp	r3, #0
 8001b70:	d101      	bne.n	8001b76 <HAL_I2C_Init+0x12>
 8001b72:	2301      	movs	r3, #1
 8001b74:	e08d      	b.n	8001c92 <HAL_I2C_Init+0x12e>
 8001b76:	687b      	ldr	r3, [r7, #4]
 8001b78:	f893 3041 	ldrb.w	r3, [r3, #65]	@ 0x41
 8001b7c:	b2db      	uxtb	r3, r3
 8001b7e:	2b00      	cmp	r3, #0
 8001b80:	d106      	bne.n	8001b90 <HAL_I2C_Init+0x2c>
 8001b82:	687b      	ldr	r3, [r7, #4]
 8001b84:	2200      	movs	r2, #0
 8001b86:	f883 2040 	strb.w	r2, [r3, #64]	@ 0x40
 8001b8a:	6878      	ldr	r0, [r7, #4]
 8001b8c:	f7ff faea 	bl	8001164 <HAL_I2C_MspInit>
 8001b90:	687b      	ldr	r3, [r7, #4]
 8001b92:	2224      	movs	r2, #36	@ 0x24
 8001b94:	f883 2041 	strb.w	r2, [r3, #65]	@ 0x41
 8001b98:	687b      	ldr	r3, [r7, #4]
 8001b9a:	681b      	ldr	r3, [r3, #0]
 8001b9c:	681a      	ldr	r2, [r3, #0]
 8001b9e:	687b      	ldr	r3, [r7, #4]
 8001ba0:	681b      	ldr	r3, [r3, #0]
 8001ba2:	f022 0201 	bic.w	r2, r2, #1
 8001ba6:	601a      	str	r2, [r3, #0]
 8001ba8:	687b      	ldr	r3, [r7, #4]
 8001baa:	685a      	ldr	r2, [r3, #4]
 8001bac:	687b      	ldr	r3, [r7, #4]
 8001bae:	681b      	ldr	r3, [r3, #0]
 8001bb0:	f022 6270 	bic.w	r2, r2, #251658240	@ 0xf000000
 8001bb4:	611a      	str	r2, [r3, #16]
 8001bb6:	687b      	ldr	r3, [r7, #4]
 8001bb8:	681b      	ldr	r3, [r3, #0]
 8001bba:	689a      	ldr	r2, [r3, #8]
 8001bbc:	687b      	ldr	r3, [r7, #4]
 8001bbe:	681b      	ldr	r3, [r3, #0]
 8001bc0:	f422 4200 	bic.w	r2, r2, #32768	@ 0x8000
 8001bc4:	609a      	str	r2, [r3, #8]
 8001bc6:	687b      	ldr	r3, [r7, #4]
 8001bc8:	68db      	ldr	r3, [r3, #12]
 8001bca:	2b01      	cmp	r3, #1
 8001bcc:	d107      	bne.n	8001bde <HAL_I2C_Init+0x7a>
 8001bce:	687b      	ldr	r3, [r7, #4]
 8001bd0:	689a      	ldr	r2, [r3, #8]
 8001bd2:	687b      	ldr	r3, [r7, #4]
 8001bd4:	681b      	ldr	r3, [r3, #0]
 8001bd6:	f442 4200 	orr.w	r2, r2, #32768	@ 0x8000
 8001bda:	609a      	str	r2, [r3, #8]
 8001bdc:	e006      	b.n	8001bec <HAL_I2C_Init+0x88>
 8001bde:	687b      	ldr	r3, [r7, #4]
 8001be0:	689a      	ldr	r2, [r3, #8]
 8001be2:	687b      	ldr	r3, [r7, #4]
 8001be4:	681b      	ldr	r3, [r3, #0]
 8001be6:	f442 4204 	orr.w	r2, r2, #33792	@ 0x8400
 8001bea:	609a      	str	r2, [r3, #8]
 8001bec:	687b      	ldr	r3, [r7, #4]
 8001bee:	68db      	ldr	r3, [r3, #12]
 8001bf0:	2b02      	cmp	r3, #2
 8001bf2:	d108      	bne.n	8001c06 <HAL_I2C_Init+0xa2>
 8001bf4:	687b      	ldr	r3, [r7, #4]
 8001bf6:	681b      	ldr	r3, [r3, #0]
 8001bf8:	685a      	ldr	r2, [r3, #4]
 8001bfa:	687b      	ldr	r3, [r7, #4]
 8001bfc:	681b      	ldr	r3, [r3, #0]
 8001bfe:	f442 6200 	orr.w	r2, r2, #2048	@ 0x800
 8001c02:	605a      	str	r2, [r3, #4]
 8001c04:	e007      	b.n	8001c16 <HAL_I2C_Init+0xb2>
 8001c06:	687b      	ldr	r3, [r7, #4]
 8001c08:	681b      	ldr	r3, [r3, #0]
 8001c0a:	685a      	ldr	r2, [r3, #4]
 8001c0c:	687b      	ldr	r3, [r7, #4]
 8001c0e:	681b      	ldr	r3, [r3, #0]
 8001c10:	f422 6200 	bic.w	r2, r2, #2048	@ 0x800
 8001c14:	605a      	str	r2, [r3, #4]
 8001c16:	687b      	ldr	r3, [r7, #4]
 8001c18:	681b      	ldr	r3, [r3, #0]
 8001c1a:	685b      	ldr	r3, [r3, #4]
 8001c1c:	687a      	ldr	r2, [r7, #4]
 8001c1e:	6812      	ldr	r2, [r2, #0]
 8001c20:	f043 7300 	orr.w	r3, r3, #33554432	@ 0x2000000
 8001c24:	f443 4300 	orr.w	r3, r3, #32768	@ 0x8000
 8001c28:	6053      	str	r3, [r2, #4]
 8001c2a:	687b      	ldr	r3, [r7, #4]
 8001c2c:	681b      	ldr	r3, [r3, #0]
 8001c2e:	68da      	ldr	r2, [r3, #12]
 8001c30:	687b      	ldr	r3, [r7, #4]
 8001c32:	681b      	ldr	r3, [r3, #0]
 8001c34:	f422 4200 	bic.w	r2, r2, #32768	@ 0x8000
 8001c38:	60da      	str	r2, [r3, #12]
 8001c3a:	687b      	ldr	r3, [r7, #4]
 8001c3c:	691a      	ldr	r2, [r3, #16]
 8001c3e:	687b      	ldr	r3, [r7, #4]
 8001c40:	695b      	ldr	r3, [r3, #20]
 8001c42:	ea42 0103 	orr.w	r1, r2, r3
 8001c46:	687b      	ldr	r3, [r7, #4]
 8001c48:	699b      	ldr	r3, [r3, #24]
 8001c4a:	021a      	lsls	r2, r3, #8
 8001c4c:	687b      	ldr	r3, [r7, #4]
 8001c4e:	681b      	ldr	r3, [r3, #0]
 8001c50:	430a      	orrs	r2, r1
 8001c52:	60da      	str	r2, [r3, #12]
 8001c54:	687b      	ldr	r3, [r7, #4]
 8001c56:	69d9      	ldr	r1, [r3, #28]
 8001c58:	687b      	ldr	r3, [r7, #4]
 8001c5a:	6a1a      	ldr	r2, [r3, #32]
 8001c5c:	687b      	ldr	r3, [r7, #4]
 8001c5e:	681b      	ldr	r3, [r3, #0]
 8001c60:	430a      	orrs	r2, r1
 8001c62:	601a      	str	r2, [r3, #0]
 8001c64:	687b      	ldr	r3, [r7, #4]
 8001c66:	681b      	ldr	r3, [r3, #0]
 8001c68:	681a      	ldr	r2, [r3, #0]
 8001c6a:	687b      	ldr	r3, [r7, #4]
 8001c6c:	681b      	ldr	r3, [r3, #0]
 8001c6e:	f042 0201 	orr.w	r2, r2, #1
 8001c72:	601a      	str	r2, [r3, #0]
 8001c74:	687b      	ldr	r3, [r7, #4]
 8001c76:	2200      	movs	r2, #0
 8001c78:	645a      	str	r2, [r3, #68]	@ 0x44
 8001c7a:	687b      	ldr	r3, [r7, #4]
 8001c7c:	2220      	movs	r2, #32
 8001c7e:	f883 2041 	strb.w	r2, [r3, #65]	@ 0x41
 8001c82:	687b      	ldr	r3, [r7, #4]
 8001c84:	2200      	movs	r2, #0
 8001c86:	631a      	str	r2, [r3, #48]	@ 0x30
 8001c88:	687b      	ldr	r3, [r7, #4]
 8001c8a:	2200      	movs	r2, #0
 8001c8c:	f883 2042 	strb.w	r2, [r3, #66]	@ 0x42
 8001c90:	2300      	movs	r3, #0
 8001c92:	4618      	mov	r0, r3
 8001c94:	3708      	adds	r7, #8
 8001c96:	46bd      	mov	sp, r7
 8001c98:	bd80      	pop	{r7, pc}
	...

08001c9c <HAL_I2C_Master_Transmit>:
 8001c9c:	b580      	push	{r7, lr}
 8001c9e:	b088      	sub	sp, #32
 8001ca0:	af02      	add	r7, sp, #8
 8001ca2:	60f8      	str	r0, [r7, #12]
 8001ca4:	607a      	str	r2, [r7, #4]
 8001ca6:	461a      	mov	r2, r3
 8001ca8:	460b      	mov	r3, r1
 8001caa:	817b      	strh	r3, [r7, #10]
 8001cac:	4613      	mov	r3, r2
 8001cae:	813b      	strh	r3, [r7, #8]
 8001cb0:	68fb      	ldr	r3, [r7, #12]
 8001cb2:	f893 3041 	ldrb.w	r3, [r3, #65]	@ 0x41
 8001cb6:	b2db      	uxtb	r3, r3
 8001cb8:	2b20      	cmp	r3, #32
 8001cba:	f040 80fd 	bne.w	8001eb8 <HAL_I2C_Master_Transmit+0x21c>
 8001cbe:	68fb      	ldr	r3, [r7, #12]
 8001cc0:	f893 3040 	ldrb.w	r3, [r3, #64]	@ 0x40
 8001cc4:	2b01      	cmp	r3, #1
 8001cc6:	d101      	bne.n	8001ccc <HAL_I2C_Master_Transmit+0x30>
 8001cc8:	2302      	movs	r3, #2
 8001cca:	e0f6      	b.n	8001eba <HAL_I2C_Master_Transmit+0x21e>
 8001ccc:	68fb      	ldr	r3, [r7, #12]
 8001cce:	2201      	movs	r2, #1
 8001cd0:	f883 2040 	strb.w	r2, [r3, #64]	@ 0x40
 8001cd4:	f7ff fc9a 	bl	800160c <HAL_GetTick>
 8001cd8:	6138      	str	r0, [r7, #16]
 8001cda:	693b      	ldr	r3, [r7, #16]
 8001cdc:	9300      	str	r3, [sp, #0]
 8001cde:	2319      	movs	r3, #25
 8001ce0:	2201      	movs	r2, #1
 8001ce2:	f44f 4100 	mov.w	r1, #32768	@ 0x8000
 8001ce6:	68f8      	ldr	r0, [r7, #12]
 8001ce8:	f000 f914 	bl	8001f14 <I2C_WaitOnFlagUntilTimeout>
 8001cec:	4603      	mov	r3, r0
 8001cee:	2b00      	cmp	r3, #0
 8001cf0:	d001      	beq.n	8001cf6 <HAL_I2C_Master_Transmit+0x5a>
 8001cf2:	2301      	movs	r3, #1
 8001cf4:	e0e1      	b.n	8001eba <HAL_I2C_Master_Transmit+0x21e>
 8001cf6:	68fb      	ldr	r3, [r7, #12]
 8001cf8:	2221      	movs	r2, #33	@ 0x21
 8001cfa:	f883 2041 	strb.w	r2, [r3, #65]	@ 0x41
 8001cfe:	68fb      	ldr	r3, [r7, #12]
 8001d00:	2210      	movs	r2, #16
 8001d02:	f883 2042 	strb.w	r2, [r3, #66]	@ 0x42
 8001d06:	68fb      	ldr	r3, [r7, #12]
 8001d08:	2200      	movs	r2, #0
 8001d0a:	645a      	str	r2, [r3, #68]	@ 0x44
 8001d0c:	68fb      	ldr	r3, [r7, #12]
 8001d0e:	687a      	ldr	r2, [r7, #4]
 8001d10:	625a      	str	r2, [r3, #36]	@ 0x24
 8001d12:	68fb      	ldr	r3, [r7, #12]
 8001d14:	893a      	ldrh	r2, [r7, #8]
 8001d16:	855a      	strh	r2, [r3, #42]	@ 0x2a
 8001d18:	68fb      	ldr	r3, [r7, #12]
 8001d1a:	2200      	movs	r2, #0
 8001d1c:	635a      	str	r2, [r3, #52]	@ 0x34
 8001d1e:	68fb      	ldr	r3, [r7, #12]
 8001d20:	8d5b      	ldrh	r3, [r3, #42]	@ 0x2a
 8001d22:	b29b      	uxth	r3, r3
 8001d24:	2bff      	cmp	r3, #255	@ 0xff
 8001d26:	d906      	bls.n	8001d36 <HAL_I2C_Master_Transmit+0x9a>
 8001d28:	68fb      	ldr	r3, [r7, #12]
 8001d2a:	22ff      	movs	r2, #255	@ 0xff
 8001d2c:	851a      	strh	r2, [r3, #40]	@ 0x28
 8001d2e:	f04f 7380 	mov.w	r3, #16777216	@ 0x1000000
 8001d32:	617b      	str	r3, [r7, #20]
 8001d34:	e007      	b.n	8001d46 <HAL_I2C_Master_Transmit+0xaa>
 8001d36:	68fb      	ldr	r3, [r7, #12]
 8001d38:	8d5b      	ldrh	r3, [r3, #42]	@ 0x2a
 8001d3a:	b29a      	uxth	r2, r3
 8001d3c:	68fb      	ldr	r3, [r7, #12]
 8001d3e:	851a      	strh	r2, [r3, #40]	@ 0x28
 8001d40:	f04f 7300 	mov.w	r3, #33554432	@ 0x2000000
 8001d44:	617b      	str	r3, [r7, #20]
 8001d46:	68fb      	ldr	r3, [r7, #12]
 8001d48:	8d1b      	ldrh	r3, [r3, #40]	@ 0x28
 8001d4a:	2b00      	cmp	r3, #0
 8001d4c:	d024      	beq.n	8001d98 <HAL_I2C_Master_Transmit+0xfc>
 8001d4e:	68fb      	ldr	r3, [r7, #12]
 8001d50:	6a5b      	ldr	r3, [r3, #36]	@ 0x24
 8001d52:	781a      	ldrb	r2, [r3, #0]
 8001d54:	68fb      	ldr	r3, [r7, #12]
 8001d56:	681b      	ldr	r3, [r3, #0]
 8001d58:	629a      	str	r2, [r3, #40]	@ 0x28
 8001d5a:	68fb      	ldr	r3, [r7, #12]
 8001d5c:	6a5b      	ldr	r3, [r3, #36]	@ 0x24
 8001d5e:	1c5a      	adds	r2, r3, #1
 8001d60:	68fb      	ldr	r3, [r7, #12]
 8001d62:	625a      	str	r2, [r3, #36]	@ 0x24
 8001d64:	68fb      	ldr	r3, [r7, #12]
 8001d66:	8d5b      	ldrh	r3, [r3, #42]	@ 0x2a
 8001d68:	b29b      	uxth	r3, r3
 8001d6a:	3b01      	subs	r3, #1
 8001d6c:	b29a      	uxth	r2, r3
 8001d6e:	68fb      	ldr	r3, [r7, #12]
 8001d70:	855a      	strh	r2, [r3, #42]	@ 0x2a
 8001d72:	68fb      	ldr	r3, [r7, #12]
 8001d74:	8d1b      	ldrh	r3, [r3, #40]	@ 0x28
 8001d76:	3b01      	subs	r3, #1
 8001d78:	b29a      	uxth	r2, r3
 8001d7a:	68fb      	ldr	r3, [r7, #12]
 8001d7c:	851a      	strh	r2, [r3, #40]	@ 0x28
 8001d7e:	68fb      	ldr	r3, [r7, #12]
 8001d80:	8d1b      	ldrh	r3, [r3, #40]	@ 0x28
 8001d82:	b2db      	uxtb	r3, r3
 8001d84:	3301      	adds	r3, #1
 8001d86:	b2da      	uxtb	r2, r3
 8001d88:	8979      	ldrh	r1, [r7, #10]
 8001d8a:	4b4e      	ldr	r3, [pc, #312]	@ (8001ec4 <HAL_I2C_Master_Transmit+0x228>)
 8001d8c:	9300      	str	r3, [sp, #0]
 8001d8e:	697b      	ldr	r3, [r7, #20]
 8001d90:	68f8      	ldr	r0, [r7, #12]
 8001d92:	f000 fa83 	bl	800229c <I2C_TransferConfig>
 8001d96:	e066      	b.n	8001e66 <HAL_I2C_Master_Transmit+0x1ca>
 8001d98:	68fb      	ldr	r3, [r7, #12]
 8001d9a:	8d1b      	ldrh	r3, [r3, #40]	@ 0x28
 8001d9c:	b2da      	uxtb	r2, r3
 8001d9e:	8979      	ldrh	r1, [r7, #10]
 8001da0:	4b48      	ldr	r3, [pc, #288]	@ (8001ec4 <HAL_I2C_Master_Transmit+0x228>)
 8001da2:	9300      	str	r3, [sp, #0]
 8001da4:	697b      	ldr	r3, [r7, #20]
 8001da6:	68f8      	ldr	r0, [r7, #12]
 8001da8:	f000 fa78 	bl	800229c <I2C_TransferConfig>
 8001dac:	e05b      	b.n	8001e66 <HAL_I2C_Master_Transmit+0x1ca>
 8001dae:	693a      	ldr	r2, [r7, #16]
 8001db0:	6a39      	ldr	r1, [r7, #32]
 8001db2:	68f8      	ldr	r0, [r7, #12]
 8001db4:	f000 f907 	bl	8001fc6 <I2C_WaitOnTXISFlagUntilTimeout>
 8001db8:	4603      	mov	r3, r0
 8001dba:	2b00      	cmp	r3, #0
 8001dbc:	d001      	beq.n	8001dc2 <HAL_I2C_Master_Transmit+0x126>
 8001dbe:	2301      	movs	r3, #1
 8001dc0:	e07b      	b.n	8001eba <HAL_I2C_Master_Transmit+0x21e>
 8001dc2:	68fb      	ldr	r3, [r7, #12]
 8001dc4:	6a5b      	ldr	r3, [r3, #36]	@ 0x24
 8001dc6:	781a      	ldrb	r2, [r3, #0]
 8001dc8:	68fb      	ldr	r3, [r7, #12]
 8001dca:	681b      	ldr	r3, [r3, #0]
 8001dcc:	629a      	str	r2, [r3, #40]	@ 0x28
 8001dce:	68fb      	ldr	r3, [r7, #12]
 8001dd0:	6a5b      	ldr	r3, [r3, #36]	@ 0x24
 8001dd2:	1c5a      	adds	r2, r3, #1
 8001dd4:	68fb      	ldr	r3, [r7, #12]
 8001dd6:	625a      	str	r2, [r3, #36]	@ 0x24
 8001dd8:	68fb      	ldr	r3, [r7, #12]
 8001dda:	8d5b      	ldrh	r3, [r3, #42]	@ 0x2a
 8001ddc:	b29b      	uxth	r3, r3
 8001dde:	3b01      	subs	r3, #1
 8001de0:	b29a      	uxth	r2, r3
 8001de2:	68fb      	ldr	r3, [r7, #12]
 8001de4:	855a      	strh	r2, [r3, #42]	@ 0x2a
 8001de6:	68fb      	ldr	r3, [r7, #12]
 8001de8:	8d1b      	ldrh	r3, [r3, #40]	@ 0x28
 8001dea:	3b01      	subs	r3, #1
 8001dec:	b29a      	uxth	r2, r3
 8001dee:	68fb      	ldr	r3, [r7, #12]
 8001df0:	851a      	strh	r2, [r3, #40]	@ 0x28
 8001df2:	68fb      	ldr	r3, [r7, #12]
 8001df4:	8d5b      	ldrh	r3, [r3, #42]	@ 0x2a
 8001df6:	b29b      	uxth	r3, r3
 8001df8:	2b00      	cmp	r3, #0
 8001dfa:	d034      	beq.n	8001e66 <HAL_I2C_Master_Transmit+0x1ca>
 8001dfc:	68fb      	ldr	r3, [r7, #12]
 8001dfe:	8d1b      	ldrh	r3, [r3, #40]	@ 0x28
 8001e00:	2b00      	cmp	r3, #0
 8001e02:	d130      	bne.n	8001e66 <HAL_I2C_Master_Transmit+0x1ca>
 8001e04:	693b      	ldr	r3, [r7, #16]
 8001e06:	9300      	str	r3, [sp, #0]
 8001e08:	6a3b      	ldr	r3, [r7, #32]
 8001e0a:	2200      	movs	r2, #0
 8001e0c:	2180      	movs	r1, #128	@ 0x80
 8001e0e:	68f8      	ldr	r0, [r7, #12]
 8001e10:	f000 f880 	bl	8001f14 <I2C_WaitOnFlagUntilTimeout>
 8001e14:	4603      	mov	r3, r0
 8001e16:	2b00      	cmp	r3, #0
 8001e18:	d001      	beq.n	8001e1e <HAL_I2C_Master_Transmit+0x182>
 8001e1a:	2301      	movs	r3, #1
 8001e1c:	e04d      	b.n	8001eba <HAL_I2C_Master_Transmit+0x21e>
 8001e1e:	68fb      	ldr	r3, [r7, #12]
 8001e20:	8d5b      	ldrh	r3, [r3, #42]	@ 0x2a
 8001e22:	b29b      	uxth	r3, r3
 8001e24:	2bff      	cmp	r3, #255	@ 0xff
 8001e26:	d90e      	bls.n	8001e46 <HAL_I2C_Master_Transmit+0x1aa>
 8001e28:	68fb      	ldr	r3, [r7, #12]
 8001e2a:	22ff      	movs	r2, #255	@ 0xff
 8001e2c:	851a      	strh	r2, [r3, #40]	@ 0x28
 8001e2e:	68fb      	ldr	r3, [r7, #12]
 8001e30:	8d1b      	ldrh	r3, [r3, #40]	@ 0x28
 8001e32:	b2da      	uxtb	r2, r3
 8001e34:	8979      	ldrh	r1, [r7, #10]
 8001e36:	2300      	movs	r3, #0
 8001e38:	9300      	str	r3, [sp, #0]
 8001e3a:	f04f 7380 	mov.w	r3, #16777216	@ 0x1000000
 8001e3e:	68f8      	ldr	r0, [r7, #12]
 8001e40:	f000 fa2c 	bl	800229c <I2C_TransferConfig>
 8001e44:	e00f      	b.n	8001e66 <HAL_I2C_Master_Transmit+0x1ca>
 8001e46:	68fb      	ldr	r3, [r7, #12]
 8001e48:	8d5b      	ldrh	r3, [r3, #42]	@ 0x2a
 8001e4a:	b29a      	uxth	r2, r3
 8001e4c:	68fb      	ldr	r3, [r7, #12]
 8001e4e:	851a      	strh	r2, [r3, #40]	@ 0x28
 8001e50:	68fb      	ldr	r3, [r7, #12]
 8001e52:	8d1b      	ldrh	r3, [r3, #40]	@ 0x28
 8001e54:	b2da      	uxtb	r2, r3
 8001e56:	8979      	ldrh	r1, [r7, #10]
 8001e58:	2300      	movs	r3, #0
 8001e5a:	9300      	str	r3, [sp, #0]
 8001e5c:	f04f 7300 	mov.w	r3, #33554432	@ 0x2000000
 8001e60:	68f8      	ldr	r0, [r7, #12]
 8001e62:	f000 fa1b 	bl	800229c <I2C_TransferConfig>
 8001e66:	68fb      	ldr	r3, [r7, #12]
 8001e68:	8d5b      	ldrh	r3, [r3, #42]	@ 0x2a
 8001e6a:	b29b      	uxth	r3, r3
 8001e6c:	2b00      	cmp	r3, #0
 8001e6e:	d19e      	bne.n	8001dae <HAL_I2C_Master_Transmit+0x112>
 8001e70:	693a      	ldr	r2, [r7, #16]
 8001e72:	6a39      	ldr	r1, [r7, #32]
 8001e74:	68f8      	ldr	r0, [r7, #12]
 8001e76:	f000 f8ed 	bl	8002054 <I2C_WaitOnSTOPFlagUntilTimeout>
 8001e7a:	4603      	mov	r3, r0
 8001e7c:	2b00      	cmp	r3, #0
 8001e7e:	d001      	beq.n	8001e84 <HAL_I2C_Master_Transmit+0x1e8>
 8001e80:	2301      	movs	r3, #1
 8001e82:	e01a      	b.n	8001eba <HAL_I2C_Master_Transmit+0x21e>
 8001e84:	68fb      	ldr	r3, [r7, #12]
 8001e86:	681b      	ldr	r3, [r3, #0]
 8001e88:	2220      	movs	r2, #32
 8001e8a:	61da      	str	r2, [r3, #28]
 8001e8c:	68fb      	ldr	r3, [r7, #12]
 8001e8e:	681b      	ldr	r3, [r3, #0]
 8001e90:	6859      	ldr	r1, [r3, #4]
 8001e92:	68fb      	ldr	r3, [r7, #12]
 8001e94:	681a      	ldr	r2, [r3, #0]
 8001e96:	4b0c      	ldr	r3, [pc, #48]	@ (8001ec8 <HAL_I2C_Master_Transmit+0x22c>)
 8001e98:	400b      	ands	r3, r1
 8001e9a:	6053      	str	r3, [r2, #4]
 8001e9c:	68fb      	ldr	r3, [r7, #12]
 8001e9e:	2220      	movs	r2, #32
 8001ea0:	f883 2041 	strb.w	r2, [r3, #65]	@ 0x41
 8001ea4:	68fb      	ldr	r3, [r7, #12]
 8001ea6:	2200      	movs	r2, #0
 8001ea8:	f883 2042 	strb.w	r2, [r3, #66]	@ 0x42
 8001eac:	68fb      	ldr	r3, [r7, #12]
 8001eae:	2200      	movs	r2, #0
 8001eb0:	f883 2040 	strb.w	r2, [r3, #64]	@ 0x40
 8001eb4:	2300      	movs	r3, #0
 8001eb6:	e000      	b.n	8001eba <HAL_I2C_Master_Transmit+0x21e>
 8001eb8:	2302      	movs	r3, #2
 8001eba:	4618      	mov	r0, r3
 8001ebc:	3718      	adds	r7, #24
 8001ebe:	46bd      	mov	sp, r7
 8001ec0:	bd80      	pop	{r7, pc}
 8001ec2:	bf00      	nop
 8001ec4:	80002000 	.word	0x80002000
 8001ec8:	fe00e800 	.word	0xfe00e800

08001ecc <I2C_Flush_TXDR>:
 8001ecc:	b480      	push	{r7}
 8001ece:	b083      	sub	sp, #12
 8001ed0:	af00      	add	r7, sp, #0
 8001ed2:	6078      	str	r0, [r7, #4]
 8001ed4:	687b      	ldr	r3, [r7, #4]
 8001ed6:	681b      	ldr	r3, [r3, #0]
 8001ed8:	699b      	ldr	r3, [r3, #24]
 8001eda:	f003 0302 	and.w	r3, r3, #2
 8001ede:	2b02      	cmp	r3, #2
 8001ee0:	d103      	bne.n	8001eea <I2C_Flush_TXDR+0x1e>
 8001ee2:	687b      	ldr	r3, [r7, #4]
 8001ee4:	681b      	ldr	r3, [r3, #0]
 8001ee6:	2200      	movs	r2, #0
 8001ee8:	629a      	str	r2, [r3, #40]	@ 0x28
 8001eea:	687b      	ldr	r3, [r7, #4]
 8001eec:	681b      	ldr	r3, [r3, #0]
 8001eee:	699b      	ldr	r3, [r3, #24]
 8001ef0:	f003 0301 	and.w	r3, r3, #1
 8001ef4:	2b01      	cmp	r3, #1
 8001ef6:	d007      	beq.n	8001f08 <I2C_Flush_TXDR+0x3c>
 8001ef8:	687b      	ldr	r3, [r7, #4]
 8001efa:	681b      	ldr	r3, [r3, #0]
 8001efc:	699a      	ldr	r2, [r3, #24]
 8001efe:	687b      	ldr	r3, [r7, #4]
 8001f00:	681b      	ldr	r3, [r3, #0]
 8001f02:	f042 0201 	orr.w	r2, r2, #1
 8001f06:	619a      	str	r2, [r3, #24]
 8001f08:	bf00      	nop
 8001f0a:	370c      	adds	r7, #12
 8001f0c:	46bd      	mov	sp, r7
 8001f0e:	f85d 7b04 	ldr.w	r7, [sp], #4
 8001f12:	4770      	bx	lr

08001f14 <I2C_WaitOnFlagUntilTimeout>:
 8001f14:	b580      	push	{r7, lr}
 8001f16:	b084      	sub	sp, #16
 8001f18:	af00      	add	r7, sp, #0
 8001f1a:	60f8      	str	r0, [r7, #12]
 8001f1c:	60b9      	str	r1, [r7, #8]
 8001f1e:	603b      	str	r3, [r7, #0]
 8001f20:	4613      	mov	r3, r2
 8001f22:	71fb      	strb	r3, [r7, #7]
 8001f24:	e03b      	b.n	8001f9e <I2C_WaitOnFlagUntilTimeout+0x8a>
 8001f26:	69ba      	ldr	r2, [r7, #24]
 8001f28:	6839      	ldr	r1, [r7, #0]
 8001f2a:	68f8      	ldr	r0, [r7, #12]
 8001f2c:	f000 f8d6 	bl	80020dc <I2C_IsErrorOccurred>
 8001f30:	4603      	mov	r3, r0
 8001f32:	2b00      	cmp	r3, #0
 8001f34:	d001      	beq.n	8001f3a <I2C_WaitOnFlagUntilTimeout+0x26>
 8001f36:	2301      	movs	r3, #1
 8001f38:	e041      	b.n	8001fbe <I2C_WaitOnFlagUntilTimeout+0xaa>
 8001f3a:	683b      	ldr	r3, [r7, #0]
 8001f3c:	f1b3 3fff 	cmp.w	r3, #4294967295	@ 0xffffffff
 8001f40:	d02d      	beq.n	8001f9e <I2C_WaitOnFlagUntilTimeout+0x8a>
 8001f42:	f7ff fb63 	bl	800160c <HAL_GetTick>
 8001f46:	4602      	mov	r2, r0
 8001f48:	69bb      	ldr	r3, [r7, #24]
 8001f4a:	1ad3      	subs	r3, r2, r3
 8001f4c:	683a      	ldr	r2, [r7, #0]
 8001f4e:	429a      	cmp	r2, r3
 8001f50:	d302      	bcc.n	8001f58 <I2C_WaitOnFlagUntilTimeout+0x44>
 8001f52:	683b      	ldr	r3, [r7, #0]
 8001f54:	2b00      	cmp	r3, #0
 8001f56:	d122      	bne.n	8001f9e <I2C_WaitOnFlagUntilTimeout+0x8a>
 8001f58:	68fb      	ldr	r3, [r7, #12]
 8001f5a:	681b      	ldr	r3, [r3, #0]
 8001f5c:	699a      	ldr	r2, [r3, #24]
 8001f5e:	68bb      	ldr	r3, [r7, #8]
 8001f60:	4013      	ands	r3, r2
 8001f62:	68ba      	ldr	r2, [r7, #8]
 8001f64:	429a      	cmp	r2, r3
 8001f66:	bf0c      	ite	eq
 8001f68:	2301      	moveq	r3, #1
 8001f6a:	2300      	movne	r3, #0
 8001f6c:	b2db      	uxtb	r3, r3
 8001f6e:	461a      	mov	r2, r3
 8001f70:	79fb      	ldrb	r3, [r7, #7]
 8001f72:	429a      	cmp	r2, r3
 8001f74:	d113      	bne.n	8001f9e <I2C_WaitOnFlagUntilTimeout+0x8a>
 8001f76:	68fb      	ldr	r3, [r7, #12]
 8001f78:	6c5b      	ldr	r3, [r3, #68]	@ 0x44
 8001f7a:	f043 0220 	orr.w	r2, r3, #32
 8001f7e:	68fb      	ldr	r3, [r7, #12]
 8001f80:	645a      	str	r2, [r3, #68]	@ 0x44
 8001f82:	68fb      	ldr	r3, [r7, #12]
 8001f84:	2220      	movs	r2, #32
 8001f86:	f883 2041 	strb.w	r2, [r3, #65]	@ 0x41
 8001f8a:	68fb      	ldr	r3, [r7, #12]
 8001f8c:	2200      	movs	r2, #0
 8001f8e:	f883 2042 	strb.w	r2, [r3, #66]	@ 0x42
 8001f92:	68fb      	ldr	r3, [r7, #12]
 8001f94:	2200      	movs	r2, #0
 8001f96:	f883 2040 	strb.w	r2, [r3, #64]	@ 0x40
 8001f9a:	2301      	movs	r3, #1
 8001f9c:	e00f      	b.n	8001fbe <I2C_WaitOnFlagUntilTimeout+0xaa>
 8001f9e:	68fb      	ldr	r3, [r7, #12]
 8001fa0:	681b      	ldr	r3, [r3, #0]
 8001fa2:	699a      	ldr	r2, [r3, #24]
 8001fa4:	68bb      	ldr	r3, [r7, #8]
 8001fa6:	4013      	ands	r3, r2
 8001fa8:	68ba      	ldr	r2, [r7, #8]
 8001faa:	429a      	cmp	r2, r3
 8001fac:	bf0c      	ite	eq
 8001fae:	2301      	moveq	r3, #1
 8001fb0:	2300      	movne	r3, #0
 8001fb2:	b2db      	uxtb	r3, r3
 8001fb4:	461a      	mov	r2, r3
 8001fb6:	79fb      	ldrb	r3, [r7, #7]
 8001fb8:	429a      	cmp	r2, r3
 8001fba:	d0b4      	beq.n	8001f26 <I2C_WaitOnFlagUntilTimeout+0x12>
 8001fbc:	2300      	movs	r3, #0
 8001fbe:	4618      	mov	r0, r3
 8001fc0:	3710      	adds	r7, #16
 8001fc2:	46bd      	mov	sp, r7
 8001fc4:	bd80      	pop	{r7, pc}

08001fc6 <I2C_WaitOnTXISFlagUntilTimeout>:
 8001fc6:	b580      	push	{r7, lr}
 8001fc8:	b084      	sub	sp, #16
 8001fca:	af00      	add	r7, sp, #0
 8001fcc:	60f8      	str	r0, [r7, #12]
 8001fce:	60b9      	str	r1, [r7, #8]
 8001fd0:	607a      	str	r2, [r7, #4]
 8001fd2:	e033      	b.n	800203c <I2C_WaitOnTXISFlagUntilTimeout+0x76>
 8001fd4:	687a      	ldr	r2, [r7, #4]
 8001fd6:	68b9      	ldr	r1, [r7, #8]
 8001fd8:	68f8      	ldr	r0, [r7, #12]
 8001fda:	f000 f87f 	bl	80020dc <I2C_IsErrorOccurred>
 8001fde:	4603      	mov	r3, r0
 8001fe0:	2b00      	cmp	r3, #0
 8001fe2:	d001      	beq.n	8001fe8 <I2C_WaitOnTXISFlagUntilTimeout+0x22>
 8001fe4:	2301      	movs	r3, #1
 8001fe6:	e031      	b.n	800204c <I2C_WaitOnTXISFlagUntilTimeout+0x86>
 8001fe8:	68bb      	ldr	r3, [r7, #8]
 8001fea:	f1b3 3fff 	cmp.w	r3, #4294967295	@ 0xffffffff
 8001fee:	d025      	beq.n	800203c <I2C_WaitOnTXISFlagUntilTimeout+0x76>
 8001ff0:	f7ff fb0c 	bl	800160c <HAL_GetTick>
 8001ff4:	4602      	mov	r2, r0
 8001ff6:	687b      	ldr	r3, [r7, #4]
 8001ff8:	1ad3      	subs	r3, r2, r3
 8001ffa:	68ba      	ldr	r2, [r7, #8]
 8001ffc:	429a      	cmp	r2, r3
 8001ffe:	d302      	bcc.n	8002006 <I2C_WaitOnTXISFlagUntilTimeout+0x40>
 8002000:	68bb      	ldr	r3, [r7, #8]
 8002002:	2b00      	cmp	r3, #0
 8002004:	d11a      	bne.n	800203c <I2C_WaitOnTXISFlagUntilTimeout+0x76>
 8002006:	68fb      	ldr	r3, [r7, #12]
 8002008:	681b      	ldr	r3, [r3, #0]
 800200a:	699b      	ldr	r3, [r3, #24]
 800200c:	f003 0302 	and.w	r3, r3, #2
 8002010:	2b02      	cmp	r3, #2
 8002012:	d013      	beq.n	800203c <I2C_WaitOnTXISFlagUntilTimeout+0x76>
 8002014:	68fb      	ldr	r3, [r7, #12]
 8002016:	6c5b      	ldr	r3, [r3, #68]	@ 0x44
 8002018:	f043 0220 	orr.w	r2, r3, #32
 800201c:	68fb      	ldr	r3, [r7, #12]
 800201e:	645a      	str	r2, [r3, #68]	@ 0x44
 8002020:	68fb      	ldr	r3, [r7, #12]
 8002022:	2220      	movs	r2, #32
 8002024:	f883 2041 	strb.w	r2, [r3, #65]	@ 0x41
 8002028:	68fb      	ldr	r3, [r7, #12]
 800202a:	2200      	movs	r2, #0
 800202c:	f883 2042 	strb.w	r2, [r3, #66]	@ 0x42
 8002030:	68fb      	ldr	r3, [r7, #12]
 8002032:	2200      	movs	r2, #0
 8002034:	f883 2040 	strb.w	r2, [r3, #64]	@ 0x40
 8002038:	2301      	movs	r3, #1
 800203a:	e007      	b.n	800204c <I2C_WaitOnTXISFlagUntilTimeout+0x86>
 800203c:	68fb      	ldr	r3, [r7, #12]
 800203e:	681b      	ldr	r3, [r3, #0]
 8002040:	699b      	ldr	r3, [r3, #24]
 8002042:	f003 0302 	and.w	r3, r3, #2
 8002046:	2b02      	cmp	r3, #2
 8002048:	d1c4      	bne.n	8001fd4 <I2C_WaitOnTXISFlagUntilTimeout+0xe>
 800204a:	2300      	movs	r3, #0
 800204c:	4618      	mov	r0, r3
 800204e:	3710      	adds	r7, #16
 8002050:	46bd      	mov	sp, r7
 8002052:	bd80      	pop	{r7, pc}

08002054 <I2C_WaitOnSTOPFlagUntilTimeout>:
 8002054:	b580      	push	{r7, lr}
 8002056:	b084      	sub	sp, #16
 8002058:	af00      	add	r7, sp, #0
 800205a:	60f8      	str	r0, [r7, #12]
 800205c:	60b9      	str	r1, [r7, #8]
 800205e:	607a      	str	r2, [r7, #4]
 8002060:	e02f      	b.n	80020c2 <I2C_WaitOnSTOPFlagUntilTimeout+0x6e>
 8002062:	687a      	ldr	r2, [r7, #4]
 8002064:	68b9      	ldr	r1, [r7, #8]
 8002066:	68f8      	ldr	r0, [r7, #12]
 8002068:	f000 f838 	bl	80020dc <I2C_IsErrorOccurred>
 800206c:	4603      	mov	r3, r0
 800206e:	2b00      	cmp	r3, #0
 8002070:	d001      	beq.n	8002076 <I2C_WaitOnSTOPFlagUntilTimeout+0x22>
 8002072:	2301      	movs	r3, #1
 8002074:	e02d      	b.n	80020d2 <I2C_WaitOnSTOPFlagUntilTimeout+0x7e>
 8002076:	f7ff fac9 	bl	800160c <HAL_GetTick>
 800207a:	4602      	mov	r2, r0
 800207c:	687b      	ldr	r3, [r7, #4]
 800207e:	1ad3      	subs	r3, r2, r3
 8002080:	68ba      	ldr	r2, [r7, #8]
 8002082:	429a      	cmp	r2, r3
 8002084:	d302      	bcc.n	800208c <I2C_WaitOnSTOPFlagUntilTimeout+0x38>
 8002086:	68bb      	ldr	r3, [r7, #8]
 8002088:	2b00      	cmp	r3, #0
 800208a:	d11a      	bne.n	80020c2 <I2C_WaitOnSTOPFlagUntilTimeout+0x6e>
 800208c:	68fb      	ldr	r3, [r7, #12]
 800208e:	681b      	ldr	r3, [r3, #0]
 8002090:	699b      	ldr	r3, [r3, #24]
 8002092:	f003 0320 	and.w	r3, r3, #32
 8002096:	2b20      	cmp	r3, #32
 8002098:	d013      	beq.n	80020c2 <I2C_WaitOnSTOPFlagUntilTimeout+0x6e>
 800209a:	68fb      	ldr	r3, [r7, #12]
 800209c:	6c5b      	ldr	r3, [r3, #68]	@ 0x44
 800209e:	f043 0220 	orr.w	r2, r3, #32
 80020a2:	68fb      	ldr	r3, [r7, #12]
 80020a4:	645a      	str	r2, [r3, #68]	@ 0x44
 80020a6:	68fb      	ldr	r3, [r7, #12]
 80020a8:	2220      	movs	r2, #32
 80020aa:	f883 2041 	strb.w	r2, [r3, #65]	@ 0x41
 80020ae:	68fb      	ldr	r3, [r7, #12]
 80020b0:	2200      	movs	r2, #0
 80020b2:	f883 2042 	strb.w	r2, [r3, #66]	@ 0x42
 80020b6:	68fb      	ldr	r3, [r7, #12]
 80020b8:	2200      	movs	r2, #0
 80020ba:	f883 2040 	strb.w	r2, [r3, #64]	@ 0x40
 80020be:	2301      	movs	r3, #1
 80020c0:	e007      	b.n	80020d2 <I2C_WaitOnSTOPFlagUntilTimeout+0x7e>
 80020c2:	68fb      	ldr	r3, [r7, #12]
 80020c4:	681b      	ldr	r3, [r3, #0]
 80020c6:	699b      	ldr	r3, [r3, #24]
 80020c8:	f003 0320 	and.w	r3, r3, #32
 80020cc:	2b20      	cmp	r3, #32
 80020ce:	d1c8      	bne.n	8002062 <I2C_WaitOnSTOPFlagUntilTimeout+0xe>
 80020d0:	2300      	movs	r3, #0
 80020d2:	4618      	mov	r0, r3
 80020d4:	3710      	adds	r7, #16
 80020d6:	46bd      	mov	sp, r7
 80020d8:	bd80      	pop	{r7, pc}
	...

080020dc <I2C_IsErrorOccurred>:
 80020dc:	b580      	push	{r7, lr}
 80020de:	b08a      	sub	sp, #40	@ 0x28
 80020e0:	af00      	add	r7, sp, #0
 80020e2:	60f8      	str	r0, [r7, #12]
 80020e4:	60b9      	str	r1, [r7, #8]
 80020e6:	607a      	str	r2, [r7, #4]
 80020e8:	2300      	movs	r3, #0
 80020ea:	f887 3027 	strb.w	r3, [r7, #39]	@ 0x27
 80020ee:	68fb      	ldr	r3, [r7, #12]
 80020f0:	681b      	ldr	r3, [r3, #0]
 80020f2:	699b      	ldr	r3, [r3, #24]
 80020f4:	61bb      	str	r3, [r7, #24]
 80020f6:	2300      	movs	r3, #0
 80020f8:	623b      	str	r3, [r7, #32]
 80020fa:	687b      	ldr	r3, [r7, #4]
 80020fc:	61fb      	str	r3, [r7, #28]
 80020fe:	69bb      	ldr	r3, [r7, #24]
 8002100:	f003 0310 	and.w	r3, r3, #16
 8002104:	2b00      	cmp	r3, #0
 8002106:	d068      	beq.n	80021da <I2C_IsErrorOccurred+0xfe>
 8002108:	68fb      	ldr	r3, [r7, #12]
 800210a:	681b      	ldr	r3, [r3, #0]
 800210c:	2210      	movs	r2, #16
 800210e:	61da      	str	r2, [r3, #28]
 8002110:	e049      	b.n	80021a6 <I2C_IsErrorOccurred+0xca>
 8002112:	68bb      	ldr	r3, [r7, #8]
 8002114:	f1b3 3fff 	cmp.w	r3, #4294967295	@ 0xffffffff
 8002118:	d045      	beq.n	80021a6 <I2C_IsErrorOccurred+0xca>
 800211a:	f7ff fa77 	bl	800160c <HAL_GetTick>
 800211e:	4602      	mov	r2, r0
 8002120:	69fb      	ldr	r3, [r7, #28]
 8002122:	1ad3      	subs	r3, r2, r3
 8002124:	68ba      	ldr	r2, [r7, #8]
 8002126:	429a      	cmp	r2, r3
 8002128:	d302      	bcc.n	8002130 <I2C_IsErrorOccurred+0x54>
 800212a:	68bb      	ldr	r3, [r7, #8]
 800212c:	2b00      	cmp	r3, #0
 800212e:	d13a      	bne.n	80021a6 <I2C_IsErrorOccurred+0xca>
 8002130:	68fb      	ldr	r3, [r7, #12]
 8002132:	681b      	ldr	r3, [r3, #0]
 8002134:	685b      	ldr	r3, [r3, #4]
 8002136:	f403 4380 	and.w	r3, r3, #16384	@ 0x4000
 800213a:	617b      	str	r3, [r7, #20]
 800213c:	68fb      	ldr	r3, [r7, #12]
 800213e:	f893 3042 	ldrb.w	r3, [r3, #66]	@ 0x42
 8002142:	74fb      	strb	r3, [r7, #19]
 8002144:	68fb      	ldr	r3, [r7, #12]
 8002146:	681b      	ldr	r3, [r3, #0]
 8002148:	699b      	ldr	r3, [r3, #24]
 800214a:	f403 4300 	and.w	r3, r3, #32768	@ 0x8000
 800214e:	f5b3 4f00 	cmp.w	r3, #32768	@ 0x8000
 8002152:	d121      	bne.n	8002198 <I2C_IsErrorOccurred+0xbc>
 8002154:	697b      	ldr	r3, [r7, #20]
 8002156:	f5b3 4f80 	cmp.w	r3, #16384	@ 0x4000
 800215a:	d01d      	beq.n	8002198 <I2C_IsErrorOccurred+0xbc>
 800215c:	7cfb      	ldrb	r3, [r7, #19]
 800215e:	2b20      	cmp	r3, #32
 8002160:	d01a      	beq.n	8002198 <I2C_IsErrorOccurred+0xbc>
 8002162:	68fb      	ldr	r3, [r7, #12]
 8002164:	681b      	ldr	r3, [r3, #0]
 8002166:	685a      	ldr	r2, [r3, #4]
 8002168:	68fb      	ldr	r3, [r7, #12]
 800216a:	681b      	ldr	r3, [r3, #0]
 800216c:	f442 4280 	orr.w	r2, r2, #16384	@ 0x4000
 8002170:	605a      	str	r2, [r3, #4]
 8002172:	f7ff fa4b 	bl	800160c <HAL_GetTick>
 8002176:	61f8      	str	r0, [r7, #28]
 8002178:	e00e      	b.n	8002198 <I2C_IsErrorOccurred+0xbc>
 800217a:	f7ff fa47 	bl	800160c <HAL_GetTick>
 800217e:	4602      	mov	r2, r0
 8002180:	69fb      	ldr	r3, [r7, #28]
 8002182:	1ad3      	subs	r3, r2, r3
 8002184:	2b19      	cmp	r3, #25
 8002186:	d907      	bls.n	8002198 <I2C_IsErrorOccurred+0xbc>
 8002188:	6a3b      	ldr	r3, [r7, #32]
 800218a:	f043 0320 	orr.w	r3, r3, #32
 800218e:	623b      	str	r3, [r7, #32]
 8002190:	2301      	movs	r3, #1
 8002192:	f887 3027 	strb.w	r3, [r7, #39]	@ 0x27
 8002196:	e006      	b.n	80021a6 <I2C_IsErrorOccurred+0xca>
 8002198:	68fb      	ldr	r3, [r7, #12]
 800219a:	681b      	ldr	r3, [r3, #0]
 800219c:	699b      	ldr	r3, [r3, #24]
 800219e:	f003 0320 	and.w	r3, r3, #32
 80021a2:	2b20      	cmp	r3, #32
 80021a4:	d1e9      	bne.n	800217a <I2C_IsErrorOccurred+0x9e>
 80021a6:	68fb      	ldr	r3, [r7, #12]
 80021a8:	681b      	ldr	r3, [r3, #0]
 80021aa:	699b      	ldr	r3, [r3, #24]
 80021ac:	f003 0320 	and.w	r3, r3, #32
 80021b0:	2b20      	cmp	r3, #32
 80021b2:	d003      	beq.n	80021bc <I2C_IsErrorOccurred+0xe0>
 80021b4:	f897 3027 	ldrb.w	r3, [r7, #39]	@ 0x27
 80021b8:	2b00      	cmp	r3, #0
 80021ba:	d0aa      	beq.n	8002112 <I2C_IsErrorOccurred+0x36>
 80021bc:	f897 3027 	ldrb.w	r3, [r7, #39]	@ 0x27
 80021c0:	2b00      	cmp	r3, #0
 80021c2:	d103      	bne.n	80021cc <I2C_IsErrorOccurred+0xf0>
 80021c4:	68fb      	ldr	r3, [r7, #12]
 80021c6:	681b      	ldr	r3, [r3, #0]
 80021c8:	2220      	movs	r2, #32
 80021ca:	61da      	str	r2, [r3, #28]
 80021cc:	6a3b      	ldr	r3, [r7, #32]
 80021ce:	f043 0304 	orr.w	r3, r3, #4
 80021d2:	623b      	str	r3, [r7, #32]
 80021d4:	2301      	movs	r3, #1
 80021d6:	f887 3027 	strb.w	r3, [r7, #39]	@ 0x27
 80021da:	68fb      	ldr	r3, [r7, #12]
 80021dc:	681b      	ldr	r3, [r3, #0]
 80021de:	699b      	ldr	r3, [r3, #24]
 80021e0:	61bb      	str	r3, [r7, #24]
 80021e2:	69bb      	ldr	r3, [r7, #24]
 80021e4:	f403 7380 	and.w	r3, r3, #256	@ 0x100
 80021e8:	2b00      	cmp	r3, #0
 80021ea:	d00b      	beq.n	8002204 <I2C_IsErrorOccurred+0x128>
 80021ec:	6a3b      	ldr	r3, [r7, #32]
 80021ee:	f043 0301 	orr.w	r3, r3, #1
 80021f2:	623b      	str	r3, [r7, #32]
 80021f4:	68fb      	ldr	r3, [r7, #12]
 80021f6:	681b      	ldr	r3, [r3, #0]
 80021f8:	f44f 7280 	mov.w	r2, #256	@ 0x100
 80021fc:	61da      	str	r2, [r3, #28]
 80021fe:	2301      	movs	r3, #1
 8002200:	f887 3027 	strb.w	r3, [r7, #39]	@ 0x27
 8002204:	69bb      	ldr	r3, [r7, #24]
 8002206:	f403 6380 	and.w	r3, r3, #1024	@ 0x400
 800220a:	2b00      	cmp	r3, #0
 800220c:	d00b      	beq.n	8002226 <I2C_IsErrorOccurred+0x14a>
 800220e:	6a3b      	ldr	r3, [r7, #32]
 8002210:	f043 0308 	orr.w	r3, r3, #8
 8002214:	623b      	str	r3, [r7, #32]
 8002216:	68fb      	ldr	r3, [r7, #12]
 8002218:	681b      	ldr	r3, [r3, #0]
 800221a:	f44f 6280 	mov.w	r2, #1024	@ 0x400
 800221e:	61da      	str	r2, [r3, #28]
 8002220:	2301      	movs	r3, #1
 8002222:	f887 3027 	strb.w	r3, [r7, #39]	@ 0x27
 8002226:	69bb      	ldr	r3, [r7, #24]
 8002228:	f403 7300 	and.w	r3, r3, #512	@ 0x200
 800222c:	2b00      	cmp	r3, #0
 800222e:	d00b      	beq.n	8002248 <I2C_IsErrorOccurred+0x16c>
 8002230:	6a3b      	ldr	r3, [r7, #32]
 8002232:	f043 0302 	orr.w	r3, r3, #2
 8002236:	623b      	str	r3, [r7, #32]
 8002238:	68fb      	ldr	r3, [r7, #12]
 800223a:	681b      	ldr	r3, [r3, #0]
 800223c:	f44f 7200 	mov.w	r2, #512	@ 0x200
 8002240:	61da      	str	r2, [r3, #28]
 8002242:	2301      	movs	r3, #1
 8002244:	f887 3027 	strb.w	r3, [r7, #39]	@ 0x27
 8002248:	f897 3027 	ldrb.w	r3, [r7, #39]	@ 0x27
 800224c:	2b00      	cmp	r3, #0
 800224e:	d01c      	beq.n	800228a <I2C_IsErrorOccurred+0x1ae>
 8002250:	68f8      	ldr	r0, [r7, #12]
 8002252:	f7ff fe3b 	bl	8001ecc <I2C_Flush_TXDR>
 8002256:	68fb      	ldr	r3, [r7, #12]
 8002258:	681b      	ldr	r3, [r3, #0]
 800225a:	6859      	ldr	r1, [r3, #4]
 800225c:	68fb      	ldr	r3, [r7, #12]
 800225e:	681a      	ldr	r2, [r3, #0]
 8002260:	4b0d      	ldr	r3, [pc, #52]	@ (8002298 <I2C_IsErrorOccurred+0x1bc>)
 8002262:	400b      	ands	r3, r1
 8002264:	6053      	str	r3, [r2, #4]
 8002266:	68fb      	ldr	r3, [r7, #12]
 8002268:	6c5a      	ldr	r2, [r3, #68]	@ 0x44
 800226a:	6a3b      	ldr	r3, [r7, #32]
 800226c:	431a      	orrs	r2, r3
 800226e:	68fb      	ldr	r3, [r7, #12]
 8002270:	645a      	str	r2, [r3, #68]	@ 0x44
 8002272:	68fb      	ldr	r3, [r7, #12]
 8002274:	2220      	movs	r2, #32
 8002276:	f883 2041 	strb.w	r2, [r3, #65]	@ 0x41
 800227a:	68fb      	ldr	r3, [r7, #12]
 800227c:	2200      	movs	r2, #0
 800227e:	f883 2042 	strb.w	r2, [r3, #66]	@ 0x42
 8002282:	68fb      	ldr	r3, [r7, #12]
 8002284:	2200      	movs	r2, #0
 8002286:	f883 2040 	strb.w	r2, [r3, #64]	@ 0x40
 800228a:	f897 3027 	ldrb.w	r3, [r7, #39]	@ 0x27
 800228e:	4618      	mov	r0, r3
 8002290:	3728      	adds	r7, #40	@ 0x28
 8002292:	46bd      	mov	sp, r7
 8002294:	bd80      	pop	{r7, pc}
 8002296:	bf00      	nop
 8002298:	fe00e800 	.word	0xfe00e800

0800229c <I2C_TransferConfig>:
 800229c:	b480      	push	{r7}
 800229e:	b087      	sub	sp, #28
 80022a0:	af00      	add	r7, sp, #0
 80022a2:	60f8      	str	r0, [r7, #12]
 80022a4:	607b      	str	r3, [r7, #4]
 80022a6:	460b      	mov	r3, r1
 80022a8:	817b      	strh	r3, [r7, #10]
 80022aa:	4613      	mov	r3, r2
 80022ac:	727b      	strb	r3, [r7, #9]
 80022ae:	897b      	ldrh	r3, [r7, #10]
 80022b0:	f3c3 0209 	ubfx	r2, r3, #0, #10
 80022b4:	7a7b      	ldrb	r3, [r7, #9]
 80022b6:	041b      	lsls	r3, r3, #16
 80022b8:	f403 037f 	and.w	r3, r3, #16711680	@ 0xff0000
 80022bc:	431a      	orrs	r2, r3
 80022be:	687b      	ldr	r3, [r7, #4]
 80022c0:	431a      	orrs	r2, r3
 80022c2:	6a3b      	ldr	r3, [r7, #32]
 80022c4:	4313      	orrs	r3, r2
 80022c6:	f023 4300 	bic.w	r3, r3, #2147483648	@ 0x80000000
 80022ca:	617b      	str	r3, [r7, #20]
 80022cc:	68fb      	ldr	r3, [r7, #12]
 80022ce:	681b      	ldr	r3, [r3, #0]
 80022d0:	685a      	ldr	r2, [r3, #4]
 80022d2:	6a3b      	ldr	r3, [r7, #32]
 80022d4:	0d5b      	lsrs	r3, r3, #21
 80022d6:	f403 6180 	and.w	r1, r3, #1024	@ 0x400
 80022da:	4b08      	ldr	r3, [pc, #32]	@ (80022fc <I2C_TransferConfig+0x60>)
 80022dc:	430b      	orrs	r3, r1
 80022de:	43db      	mvns	r3, r3
 80022e0:	ea02 0103 	and.w	r1, r2, r3
 80022e4:	68fb      	ldr	r3, [r7, #12]
 80022e6:	681b      	ldr	r3, [r3, #0]
 80022e8:	697a      	ldr	r2, [r7, #20]
 80022ea:	430a      	orrs	r2, r1
 80022ec:	605a      	str	r2, [r3, #4]
 80022ee:	bf00      	nop
 80022f0:	371c      	adds	r7, #28
 80022f2:	46bd      	mov	sp, r7
 80022f4:	f85d 7b04 	ldr.w	r7, [sp], #4
 80022f8:	4770      	bx	lr
 80022fa:	bf00      	nop
 80022fc:	03ff63ff 	.word	0x03ff63ff

08002300 <HAL_I2CEx_ConfigAnalogFilter>:
 8002300:	b480      	push	{r7}
 8002302:	b083      	sub	sp, #12
 8002304:	af00      	add	r7, sp, #0
 8002306:	6078      	str	r0, [r7, #4]
 8002308:	6039      	str	r1, [r7, #0]
 800230a:	687b      	ldr	r3, [r7, #4]
 800230c:	f893 3041 	ldrb.w	r3, [r3, #65]	@ 0x41
 8002310:	b2db      	uxtb	r3, r3
 8002312:	2b20      	cmp	r3, #32
 8002314:	d138      	bne.n	8002388 <HAL_I2CEx_ConfigAnalogFilter+0x88>
 8002316:	687b      	ldr	r3, [r7, #4]
 8002318:	f893 3040 	ldrb.w	r3, [r3, #64]	@ 0x40
 800231c:	2b01      	cmp	r3, #1
 800231e:	d101      	bne.n	8002324 <HAL_I2CEx_ConfigAnalogFilter+0x24>
 8002320:	2302      	movs	r3, #2
 8002322:	e032      	b.n	800238a <HAL_I2CEx_ConfigAnalogFilter+0x8a>
 8002324:	687b      	ldr	r3, [r7, #4]
 8002326:	2201      	movs	r2, #1
 8002328:	f883 2040 	strb.w	r2, [r3, #64]	@ 0x40
 800232c:	687b      	ldr	r3, [r7, #4]
 800232e:	2224      	movs	r2, #36	@ 0x24
 8002330:	f883 2041 	strb.w	r2, [r3, #65]	@ 0x41
 8002334:	687b      	ldr	r3, [r7, #4]
 8002336:	681b      	ldr	r3, [r3, #0]
 8002338:	681a      	ldr	r2, [r3, #0]
 800233a:	687b      	ldr	r3, [r7, #4]
 800233c:	681b      	ldr	r3, [r3, #0]
 800233e:	f022 0201 	bic.w	r2, r2, #1
 8002342:	601a      	str	r2, [r3, #0]
 8002344:	687b      	ldr	r3, [r7, #4]
 8002346:	681b      	ldr	r3, [r3, #0]
 8002348:	681a      	ldr	r2, [r3, #0]
 800234a:	687b      	ldr	r3, [r7, #4]
 800234c:	681b      	ldr	r3, [r3, #0]
 800234e:	f422 5280 	bic.w	r2, r2, #4096	@ 0x1000
 8002352:	601a      	str	r2, [r3, #0]
 8002354:	687b      	ldr	r3, [r7, #4]
 8002356:	681b      	ldr	r3, [r3, #0]
 8002358:	6819      	ldr	r1, [r3, #0]
 800235a:	687b      	ldr	r3, [r7, #4]
 800235c:	681b      	ldr	r3, [r3, #0]
 800235e:	683a      	ldr	r2, [r7, #0]
 8002360:	430a      	orrs	r2, r1
 8002362:	601a      	str	r2, [r3, #0]
 8002364:	687b      	ldr	r3, [r7, #4]
 8002366:	681b      	ldr	r3, [r3, #0]
 8002368:	681a      	ldr	r2, [r3, #0]
 800236a:	687b      	ldr	r3, [r7, #4]
 800236c:	681b      	ldr	r3, [r3, #0]
 800236e:	f042 0201 	orr.w	r2, r2, #1
 8002372:	601a      	str	r2, [r3, #0]
 8002374:	687b      	ldr	r3, [r7, #4]
 8002376:	2220      	movs	r2, #32
 8002378:	f883 2041 	strb.w	r2, [r3, #65]	@ 0x41
 800237c:	687b      	ldr	r3, [r7, #4]
 800237e:	2200      	movs	r2, #0
 8002380:	f883 2040 	strb.w	r2, [r3, #64]	@ 0x40
 8002384:	2300      	movs	r3, #0
 8002386:	e000      	b.n	800238a <HAL_I2CEx_ConfigAnalogFilter+0x8a>
 8002388:	2302      	movs	r3, #2
 800238a:	4618      	mov	r0, r3
 800238c:	370c      	adds	r7, #12
 800238e:	46bd      	mov	sp, r7
 8002390:	f85d 7b04 	ldr.w	r7, [sp], #4
 8002394:	4770      	bx	lr

08002396 <HAL_I2CEx_ConfigDigitalFilter>:
 8002396:	b480      	push	{r7}
 8002398:	b085      	sub	sp, #20
 800239a:	af00      	add	r7, sp, #0
 800239c:	6078      	str	r0, [r7, #4]
 800239e:	6039      	str	r1, [r7, #0]
 80023a0:	687b      	ldr	r3, [r7, #4]
 80023a2:	f893 3041 	ldrb.w	r3, [r3, #65]	@ 0x41
 80023a6:	b2db      	uxtb	r3, r3
 80023a8:	2b20      	cmp	r3, #32
 80023aa:	d139      	bne.n	8002420 <HAL_I2CEx_ConfigDigitalFilter+0x8a>
 80023ac:	687b      	ldr	r3, [r7, #4]
 80023ae:	f893 3040 	ldrb.w	r3, [r3, #64]	@ 0x40
 80023b2:	2b01      	cmp	r3, #1
 80023b4:	d101      	bne.n	80023ba <HAL_I2CEx_ConfigDigitalFilter+0x24>
 80023b6:	2302      	movs	r3, #2
 80023b8:	e033      	b.n	8002422 <HAL_I2CEx_ConfigDigitalFilter+0x8c>
 80023ba:	687b      	ldr	r3, [r7, #4]
 80023bc:	2201      	movs	r2, #1
 80023be:	f883 2040 	strb.w	r2, [r3, #64]	@ 0x40
 80023c2:	687b      	ldr	r3, [r7, #4]
 80023c4:	2224      	movs	r2, #36	@ 0x24
 80023c6:	f883 2041 	strb.w	r2, [r3, #65]	@ 0x41
 80023ca:	687b      	ldr	r3, [r7, #4]
 80023cc:	681b      	ldr	r3, [r3, #0]
 80023ce:	681a      	ldr	r2, [r3, #0]
 80023d0:	687b      	ldr	r3, [r7, #4]
 80023d2:	681b      	ldr	r3, [r3, #0]
 80023d4:	f022 0201 	bic.w	r2, r2, #1
 80023d8:	601a      	str	r2, [r3, #0]
 80023da:	687b      	ldr	r3, [r7, #4]
 80023dc:	681b      	ldr	r3, [r3, #0]
 80023de:	681b      	ldr	r3, [r3, #0]
 80023e0:	60fb      	str	r3, [r7, #12]
 80023e2:	68fb      	ldr	r3, [r7, #12]
 80023e4:	f423 6370 	bic.w	r3, r3, #3840	@ 0xf00
 80023e8:	60fb      	str	r3, [r7, #12]
 80023ea:	683b      	ldr	r3, [r7, #0]
 80023ec:	021b      	lsls	r3, r3, #8
 80023ee:	68fa      	ldr	r2, [r7, #12]
 80023f0:	4313      	orrs	r3, r2
 80023f2:	60fb      	str	r3, [r7, #12]
 80023f4:	687b      	ldr	r3, [r7, #4]
 80023f6:	681b      	ldr	r3, [r3, #0]
 80023f8:	68fa      	ldr	r2, [r7, #12]
 80023fa:	601a      	str	r2, [r3, #0]
 80023fc:	687b      	ldr	r3, [r7, #4]
 80023fe:	681b      	ldr	r3, [r3, #0]
 8002400:	681a      	ldr	r2, [r3, #0]
 8002402:	687b      	ldr	r3, [r7, #4]
 8002404:	681b      	ldr	r3, [r3, #0]
 8002406:	f042 0201 	orr.w	r2, r2, #1
 800240a:	601a      	str	r2, [r3, #0]
 800240c:	687b      	ldr	r3, [r7, #4]
 800240e:	2220      	movs	r2, #32
 8002410:	f883 2041 	strb.w	r2, [r3, #65]	@ 0x41
 8002414:	687b      	ldr	r3, [r7, #4]
 8002416:	2200      	movs	r2, #0
 8002418:	f883 2040 	strb.w	r2, [r3, #64]	@ 0x40
 800241c:	2300      	movs	r3, #0
 800241e:	e000      	b.n	8002422 <HAL_I2CEx_ConfigDigitalFilter+0x8c>
 8002420:	2302      	movs	r3, #2
 8002422:	4618      	mov	r0, r3
 8002424:	3714      	adds	r7, #20
 8002426:	46bd      	mov	sp, r7
 8002428:	f85d 7b04 	ldr.w	r7, [sp], #4
 800242c:	4770      	bx	lr
	...

08002430 <HAL_PWREx_ControlVoltageScaling>:
 8002430:	b480      	push	{r7}
 8002432:	b085      	sub	sp, #20
 8002434:	af00      	add	r7, sp, #0
 8002436:	6078      	str	r0, [r7, #4]
 8002438:	687b      	ldr	r3, [r7, #4]
 800243a:	2b00      	cmp	r3, #0
 800243c:	d141      	bne.n	80024c2 <HAL_PWREx_ControlVoltageScaling+0x92>
 800243e:	4b4b      	ldr	r3, [pc, #300]	@ (800256c <HAL_PWREx_ControlVoltageScaling+0x13c>)
 8002440:	681b      	ldr	r3, [r3, #0]
 8002442:	f403 63c0 	and.w	r3, r3, #1536	@ 0x600
 8002446:	f5b3 6f80 	cmp.w	r3, #1024	@ 0x400
 800244a:	d131      	bne.n	80024b0 <HAL_PWREx_ControlVoltageScaling+0x80>
 800244c:	4b47      	ldr	r3, [pc, #284]	@ (800256c <HAL_PWREx_ControlVoltageScaling+0x13c>)
 800244e:	f8d3 3080 	ldr.w	r3, [r3, #128]	@ 0x80
 8002452:	4a46      	ldr	r2, [pc, #280]	@ (800256c <HAL_PWREx_ControlVoltageScaling+0x13c>)
 8002454:	f423 7380 	bic.w	r3, r3, #256	@ 0x100
 8002458:	f8c2 3080 	str.w	r3, [r2, #128]	@ 0x80
 800245c:	4b43      	ldr	r3, [pc, #268]	@ (800256c <HAL_PWREx_ControlVoltageScaling+0x13c>)
 800245e:	681b      	ldr	r3, [r3, #0]
 8002460:	f423 63c0 	bic.w	r3, r3, #1536	@ 0x600
 8002464:	4a41      	ldr	r2, [pc, #260]	@ (800256c <HAL_PWREx_ControlVoltageScaling+0x13c>)
 8002466:	f443 7300 	orr.w	r3, r3, #512	@ 0x200
 800246a:	6013      	str	r3, [r2, #0]
 800246c:	4b40      	ldr	r3, [pc, #256]	@ (8002570 <HAL_PWREx_ControlVoltageScaling+0x140>)
 800246e:	681b      	ldr	r3, [r3, #0]
 8002470:	2232      	movs	r2, #50	@ 0x32
 8002472:	fb02 f303 	mul.w	r3, r2, r3
 8002476:	4a3f      	ldr	r2, [pc, #252]	@ (8002574 <HAL_PWREx_ControlVoltageScaling+0x144>)
 8002478:	fba2 2303 	umull	r2, r3, r2, r3
 800247c:	0c9b      	lsrs	r3, r3, #18
 800247e:	3301      	adds	r3, #1
 8002480:	60fb      	str	r3, [r7, #12]
 8002482:	e002      	b.n	800248a <HAL_PWREx_ControlVoltageScaling+0x5a>
 8002484:	68fb      	ldr	r3, [r7, #12]
 8002486:	3b01      	subs	r3, #1
 8002488:	60fb      	str	r3, [r7, #12]
 800248a:	4b38      	ldr	r3, [pc, #224]	@ (800256c <HAL_PWREx_ControlVoltageScaling+0x13c>)
 800248c:	695b      	ldr	r3, [r3, #20]
 800248e:	f403 6380 	and.w	r3, r3, #1024	@ 0x400
 8002492:	f5b3 6f80 	cmp.w	r3, #1024	@ 0x400
 8002496:	d102      	bne.n	800249e <HAL_PWREx_ControlVoltageScaling+0x6e>
 8002498:	68fb      	ldr	r3, [r7, #12]
 800249a:	2b00      	cmp	r3, #0
 800249c:	d1f2      	bne.n	8002484 <HAL_PWREx_ControlVoltageScaling+0x54>
 800249e:	4b33      	ldr	r3, [pc, #204]	@ (800256c <HAL_PWREx_ControlVoltageScaling+0x13c>)
 80024a0:	695b      	ldr	r3, [r3, #20]
 80024a2:	f403 6380 	and.w	r3, r3, #1024	@ 0x400
 80024a6:	f5b3 6f80 	cmp.w	r3, #1024	@ 0x400
 80024aa:	d158      	bne.n	800255e <HAL_PWREx_ControlVoltageScaling+0x12e>
 80024ac:	2303      	movs	r3, #3
 80024ae:	e057      	b.n	8002560 <HAL_PWREx_ControlVoltageScaling+0x130>
 80024b0:	4b2e      	ldr	r3, [pc, #184]	@ (800256c <HAL_PWREx_ControlVoltageScaling+0x13c>)
 80024b2:	f8d3 3080 	ldr.w	r3, [r3, #128]	@ 0x80
 80024b6:	4a2d      	ldr	r2, [pc, #180]	@ (800256c <HAL_PWREx_ControlVoltageScaling+0x13c>)
 80024b8:	f423 7380 	bic.w	r3, r3, #256	@ 0x100
 80024bc:	f8c2 3080 	str.w	r3, [r2, #128]	@ 0x80
 80024c0:	e04d      	b.n	800255e <HAL_PWREx_ControlVoltageScaling+0x12e>
 80024c2:	687b      	ldr	r3, [r7, #4]
 80024c4:	f5b3 7f00 	cmp.w	r3, #512	@ 0x200
 80024c8:	d141      	bne.n	800254e <HAL_PWREx_ControlVoltageScaling+0x11e>
 80024ca:	4b28      	ldr	r3, [pc, #160]	@ (800256c <HAL_PWREx_ControlVoltageScaling+0x13c>)
 80024cc:	681b      	ldr	r3, [r3, #0]
 80024ce:	f403 63c0 	and.w	r3, r3, #1536	@ 0x600
 80024d2:	f5b3 6f80 	cmp.w	r3, #1024	@ 0x400
 80024d6:	d131      	bne.n	800253c <HAL_PWREx_ControlVoltageScaling+0x10c>
 80024d8:	4b24      	ldr	r3, [pc, #144]	@ (800256c <HAL_PWREx_ControlVoltageScaling+0x13c>)
 80024da:	f8d3 3080 	ldr.w	r3, [r3, #128]	@ 0x80
 80024de:	4a23      	ldr	r2, [pc, #140]	@ (800256c <HAL_PWREx_ControlVoltageScaling+0x13c>)
 80024e0:	f443 7380 	orr.w	r3, r3, #256	@ 0x100
 80024e4:	f8c2 3080 	str.w	r3, [r2, #128]	@ 0x80
 80024e8:	4b20      	ldr	r3, [pc, #128]	@ (800256c <HAL_PWREx_ControlVoltageScaling+0x13c>)
 80024ea:	681b      	ldr	r3, [r3, #0]
 80024ec:	f423 63c0 	bic.w	r3, r3, #1536	@ 0x600
 80024f0:	4a1e      	ldr	r2, [pc, #120]	@ (800256c <HAL_PWREx_ControlVoltageScaling+0x13c>)
 80024f2:	f443 7300 	orr.w	r3, r3, #512	@ 0x200
 80024f6:	6013      	str	r3, [r2, #0]
 80024f8:	4b1d      	ldr	r3, [pc, #116]	@ (8002570 <HAL_PWREx_ControlVoltageScaling+0x140>)
 80024fa:	681b      	ldr	r3, [r3, #0]
 80024fc:	2232      	movs	r2, #50	@ 0x32
 80024fe:	fb02 f303 	mul.w	r3, r2, r3
 8002502:	4a1c      	ldr	r2, [pc, #112]	@ (8002574 <HAL_PWREx_ControlVoltageScaling+0x144>)
 8002504:	fba2 2303 	umull	r2, r3, r2, r3
 8002508:	0c9b      	lsrs	r3, r3, #18
 800250a:	3301      	adds	r3, #1
 800250c:	60fb      	str	r3, [r7, #12]
 800250e:	e002      	b.n	8002516 <HAL_PWREx_ControlVoltageScaling+0xe6>
 8002510:	68fb      	ldr	r3, [r7, #12]
 8002512:	3b01      	subs	r3, #1
 8002514:	60fb      	str	r3, [r7, #12]
 8002516:	4b15      	ldr	r3, [pc, #84]	@ (800256c <HAL_PWREx_ControlVoltageScaling+0x13c>)
 8002518:	695b      	ldr	r3, [r3, #20]
 800251a:	f403 6380 	and.w	r3, r3, #1024	@ 0x400
 800251e:	f5b3 6f80 	cmp.w	r3, #1024	@ 0x400
 8002522:	d102      	bne.n	800252a <HAL_PWREx_ControlVoltageScaling+0xfa>
 8002524:	68fb      	ldr	r3, [r7, #12]
 8002526:	2b00      	cmp	r3, #0
 8002528:	d1f2      	bne.n	8002510 <HAL_PWREx_ControlVoltageScaling+0xe0>
 800252a:	4b10      	ldr	r3, [pc, #64]	@ (800256c <HAL_PWREx_ControlVoltageScaling+0x13c>)
 800252c:	695b      	ldr	r3, [r3, #20]
 800252e:	f403 6380 	and.w	r3, r3, #1024	@ 0x400
 8002532:	f5b3 6f80 	cmp.w	r3, #1024	@ 0x400
 8002536:	d112      	bne.n	800255e <HAL_PWREx_ControlVoltageScaling+0x12e>
 8002538:	2303      	movs	r3, #3
 800253a:	e011      	b.n	8002560 <HAL_PWREx_ControlVoltageScaling+0x130>
 800253c:	4b0b      	ldr	r3, [pc, #44]	@ (800256c <HAL_PWREx_ControlVoltageScaling+0x13c>)
 800253e:	f8d3 3080 	ldr.w	r3, [r3, #128]	@ 0x80
 8002542:	4a0a      	ldr	r2, [pc, #40]	@ (800256c <HAL_PWREx_ControlVoltageScaling+0x13c>)
 8002544:	f443 7380 	orr.w	r3, r3, #256	@ 0x100
 8002548:	f8c2 3080 	str.w	r3, [r2, #128]	@ 0x80
 800254c:	e007      	b.n	800255e <HAL_PWREx_ControlVoltageScaling+0x12e>
 800254e:	4b07      	ldr	r3, [pc, #28]	@ (800256c <HAL_PWREx_ControlVoltageScaling+0x13c>)
 8002550:	681b      	ldr	r3, [r3, #0]
 8002552:	f423 63c0 	bic.w	r3, r3, #1536	@ 0x600
 8002556:	4a05      	ldr	r2, [pc, #20]	@ (800256c <HAL_PWREx_ControlVoltageScaling+0x13c>)
 8002558:	f443 6380 	orr.w	r3, r3, #1024	@ 0x400
 800255c:	6013      	str	r3, [r2, #0]
 800255e:	2300      	movs	r3, #0
 8002560:	4618      	mov	r0, r3
 8002562:	3714      	adds	r7, #20
 8002564:	46bd      	mov	sp, r7
 8002566:	f85d 7b04 	ldr.w	r7, [sp], #4
 800256a:	4770      	bx	lr
 800256c:	40007000 	.word	0x40007000
 8002570:	20000044 	.word	0x20000044
 8002574:	431bde83 	.word	0x431bde83

08002578 <HAL_PWREx_DisableUCPDDeadBattery>:
 8002578:	b480      	push	{r7}
 800257a:	af00      	add	r7, sp, #0
 800257c:	4b05      	ldr	r3, [pc, #20]	@ (8002594 <HAL_PWREx_DisableUCPDDeadBattery+0x1c>)
 800257e:	689b      	ldr	r3, [r3, #8]
 8002580:	4a04      	ldr	r2, [pc, #16]	@ (8002594 <HAL_PWREx_DisableUCPDDeadBattery+0x1c>)
 8002582:	f443 4380 	orr.w	r3, r3, #16384	@ 0x4000
 8002586:	6093      	str	r3, [r2, #8]
 8002588:	bf00      	nop
 800258a:	46bd      	mov	sp, r7
 800258c:	f85d 7b04 	ldr.w	r7, [sp], #4
 8002590:	4770      	bx	lr
 8002592:	bf00      	nop
 8002594:	40007000 	.word	0x40007000

08002598 <HAL_RCC_OscConfig>:
 8002598:	b580      	push	{r7, lr}
 800259a:	b088      	sub	sp, #32
 800259c:	af00      	add	r7, sp, #0
 800259e:	6078      	str	r0, [r7, #4]
 80025a0:	687b      	ldr	r3, [r7, #4]
 80025a2:	2b00      	cmp	r3, #0
 80025a4:	d101      	bne.n	80025aa <HAL_RCC_OscConfig+0x12>
 80025a6:	2301      	movs	r3, #1
 80025a8:	e2fe      	b.n	8002ba8 <HAL_RCC_OscConfig+0x610>
 80025aa:	687b      	ldr	r3, [r7, #4]
 80025ac:	681b      	ldr	r3, [r3, #0]
 80025ae:	f003 0301 	and.w	r3, r3, #1
 80025b2:	2b00      	cmp	r3, #0
 80025b4:	d075      	beq.n	80026a2 <HAL_RCC_OscConfig+0x10a>
 80025b6:	4b97      	ldr	r3, [pc, #604]	@ (8002814 <HAL_RCC_OscConfig+0x27c>)
 80025b8:	689b      	ldr	r3, [r3, #8]
 80025ba:	f003 030c 	and.w	r3, r3, #12
 80025be:	61bb      	str	r3, [r7, #24]
 80025c0:	4b94      	ldr	r3, [pc, #592]	@ (8002814 <HAL_RCC_OscConfig+0x27c>)
 80025c2:	68db      	ldr	r3, [r3, #12]
 80025c4:	f003 0303 	and.w	r3, r3, #3
 80025c8:	617b      	str	r3, [r7, #20]
 80025ca:	69bb      	ldr	r3, [r7, #24]
 80025cc:	2b0c      	cmp	r3, #12
 80025ce:	d102      	bne.n	80025d6 <HAL_RCC_OscConfig+0x3e>
 80025d0:	697b      	ldr	r3, [r7, #20]
 80025d2:	2b03      	cmp	r3, #3
 80025d4:	d002      	beq.n	80025dc <HAL_RCC_OscConfig+0x44>
 80025d6:	69bb      	ldr	r3, [r7, #24]
 80025d8:	2b08      	cmp	r3, #8
 80025da:	d10b      	bne.n	80025f4 <HAL_RCC_OscConfig+0x5c>
 80025dc:	4b8d      	ldr	r3, [pc, #564]	@ (8002814 <HAL_RCC_OscConfig+0x27c>)
 80025de:	681b      	ldr	r3, [r3, #0]
 80025e0:	f403 3300 	and.w	r3, r3, #131072	@ 0x20000
 80025e4:	2b00      	cmp	r3, #0
 80025e6:	d05b      	beq.n	80026a0 <HAL_RCC_OscConfig+0x108>
 80025e8:	687b      	ldr	r3, [r7, #4]
 80025ea:	685b      	ldr	r3, [r3, #4]
 80025ec:	2b00      	cmp	r3, #0
 80025ee:	d157      	bne.n	80026a0 <HAL_RCC_OscConfig+0x108>
 80025f0:	2301      	movs	r3, #1
 80025f2:	e2d9      	b.n	8002ba8 <HAL_RCC_OscConfig+0x610>
 80025f4:	687b      	ldr	r3, [r7, #4]
 80025f6:	685b      	ldr	r3, [r3, #4]
 80025f8:	f5b3 3f80 	cmp.w	r3, #65536	@ 0x10000
 80025fc:	d106      	bne.n	800260c <HAL_RCC_OscConfig+0x74>
 80025fe:	4b85      	ldr	r3, [pc, #532]	@ (8002814 <HAL_RCC_OscConfig+0x27c>)
 8002600:	681b      	ldr	r3, [r3, #0]
 8002602:	4a84      	ldr	r2, [pc, #528]	@ (8002814 <HAL_RCC_OscConfig+0x27c>)
 8002604:	f443 3380 	orr.w	r3, r3, #65536	@ 0x10000
 8002608:	6013      	str	r3, [r2, #0]
 800260a:	e01d      	b.n	8002648 <HAL_RCC_OscConfig+0xb0>
 800260c:	687b      	ldr	r3, [r7, #4]
 800260e:	685b      	ldr	r3, [r3, #4]
 8002610:	f5b3 2fa0 	cmp.w	r3, #327680	@ 0x50000
 8002614:	d10c      	bne.n	8002630 <HAL_RCC_OscConfig+0x98>
 8002616:	4b7f      	ldr	r3, [pc, #508]	@ (8002814 <HAL_RCC_OscConfig+0x27c>)
 8002618:	681b      	ldr	r3, [r3, #0]
 800261a:	4a7e      	ldr	r2, [pc, #504]	@ (8002814 <HAL_RCC_OscConfig+0x27c>)
 800261c:	f443 2380 	orr.w	r3, r3, #262144	@ 0x40000
 8002620:	6013      	str	r3, [r2, #0]
 8002622:	4b7c      	ldr	r3, [pc, #496]	@ (8002814 <HAL_RCC_OscConfig+0x27c>)
 8002624:	681b      	ldr	r3, [r3, #0]
 8002626:	4a7b      	ldr	r2, [pc, #492]	@ (8002814 <HAL_RCC_OscConfig+0x27c>)
 8002628:	f443 3380 	orr.w	r3, r3, #65536	@ 0x10000
 800262c:	6013      	str	r3, [r2, #0]
 800262e:	e00b      	b.n	8002648 <HAL_RCC_OscConfig+0xb0>
 8002630:	4b78      	ldr	r3, [pc, #480]	@ (8002814 <HAL_RCC_OscConfig+0x27c>)
 8002632:	681b      	ldr	r3, [r3, #0]
 8002634:	4a77      	ldr	r2, [pc, #476]	@ (8002814 <HAL_RCC_OscConfig+0x27c>)
 8002636:	f423 3380 	bic.w	r3, r3, #65536	@ 0x10000
 800263a:	6013      	str	r3, [r2, #0]
 800263c:	4b75      	ldr	r3, [pc, #468]	@ (8002814 <HAL_RCC_OscConfig+0x27c>)
 800263e:	681b      	ldr	r3, [r3, #0]
 8002640:	4a74      	ldr	r2, [pc, #464]	@ (8002814 <HAL_RCC_OscConfig+0x27c>)
 8002642:	f423 2380 	bic.w	r3, r3, #262144	@ 0x40000
 8002646:	6013      	str	r3, [r2, #0]
 8002648:	687b      	ldr	r3, [r7, #4]
 800264a:	685b      	ldr	r3, [r3, #4]
 800264c:	2b00      	cmp	r3, #0
 800264e:	d013      	beq.n	8002678 <HAL_RCC_OscConfig+0xe0>
 8002650:	f7fe ffdc 	bl	800160c <HAL_GetTick>
 8002654:	6138      	str	r0, [r7, #16]
 8002656:	e008      	b.n	800266a <HAL_RCC_OscConfig+0xd2>
 8002658:	f7fe ffd8 	bl	800160c <HAL_GetTick>
 800265c:	4602      	mov	r2, r0
 800265e:	693b      	ldr	r3, [r7, #16]
 8002660:	1ad3      	subs	r3, r2, r3
 8002662:	2b64      	cmp	r3, #100	@ 0x64
 8002664:	d901      	bls.n	800266a <HAL_RCC_OscConfig+0xd2>
 8002666:	2303      	movs	r3, #3
 8002668:	e29e      	b.n	8002ba8 <HAL_RCC_OscConfig+0x610>
 800266a:	4b6a      	ldr	r3, [pc, #424]	@ (8002814 <HAL_RCC_OscConfig+0x27c>)
 800266c:	681b      	ldr	r3, [r3, #0]
 800266e:	f403 3300 	and.w	r3, r3, #131072	@ 0x20000
 8002672:	2b00      	cmp	r3, #0
 8002674:	d0f0      	beq.n	8002658 <HAL_RCC_OscConfig+0xc0>
 8002676:	e014      	b.n	80026a2 <HAL_RCC_OscConfig+0x10a>
 8002678:	f7fe ffc8 	bl	800160c <HAL_GetTick>
 800267c:	6138      	str	r0, [r7, #16]
 800267e:	e008      	b.n	8002692 <HAL_RCC_OscConfig+0xfa>
 8002680:	f7fe ffc4 	bl	800160c <HAL_GetTick>
 8002684:	4602      	mov	r2, r0
 8002686:	693b      	ldr	r3, [r7, #16]
 8002688:	1ad3      	subs	r3, r2, r3
 800268a:	2b64      	cmp	r3, #100	@ 0x64
 800268c:	d901      	bls.n	8002692 <HAL_RCC_OscConfig+0xfa>
 800268e:	2303      	movs	r3, #3
 8002690:	e28a      	b.n	8002ba8 <HAL_RCC_OscConfig+0x610>
 8002692:	4b60      	ldr	r3, [pc, #384]	@ (8002814 <HAL_RCC_OscConfig+0x27c>)
 8002694:	681b      	ldr	r3, [r3, #0]
 8002696:	f403 3300 	and.w	r3, r3, #131072	@ 0x20000
 800269a:	2b00      	cmp	r3, #0
 800269c:	d1f0      	bne.n	8002680 <HAL_RCC_OscConfig+0xe8>
 800269e:	e000      	b.n	80026a2 <HAL_RCC_OscConfig+0x10a>
 80026a0:	bf00      	nop
 80026a2:	687b      	ldr	r3, [r7, #4]
 80026a4:	681b      	ldr	r3, [r3, #0]
 80026a6:	f003 0302 	and.w	r3, r3, #2
 80026aa:	2b00      	cmp	r3, #0
 80026ac:	d075      	beq.n	800279a <HAL_RCC_OscConfig+0x202>
 80026ae:	4b59      	ldr	r3, [pc, #356]	@ (8002814 <HAL_RCC_OscConfig+0x27c>)
 80026b0:	689b      	ldr	r3, [r3, #8]
 80026b2:	f003 030c 	and.w	r3, r3, #12
 80026b6:	61bb      	str	r3, [r7, #24]
 80026b8:	4b56      	ldr	r3, [pc, #344]	@ (8002814 <HAL_RCC_OscConfig+0x27c>)
 80026ba:	68db      	ldr	r3, [r3, #12]
 80026bc:	f003 0303 	and.w	r3, r3, #3
 80026c0:	617b      	str	r3, [r7, #20]
 80026c2:	69bb      	ldr	r3, [r7, #24]
 80026c4:	2b0c      	cmp	r3, #12
 80026c6:	d102      	bne.n	80026ce <HAL_RCC_OscConfig+0x136>
 80026c8:	697b      	ldr	r3, [r7, #20]
 80026ca:	2b02      	cmp	r3, #2
 80026cc:	d002      	beq.n	80026d4 <HAL_RCC_OscConfig+0x13c>
 80026ce:	69bb      	ldr	r3, [r7, #24]
 80026d0:	2b04      	cmp	r3, #4
 80026d2:	d11f      	bne.n	8002714 <HAL_RCC_OscConfig+0x17c>
 80026d4:	4b4f      	ldr	r3, [pc, #316]	@ (8002814 <HAL_RCC_OscConfig+0x27c>)
 80026d6:	681b      	ldr	r3, [r3, #0]
 80026d8:	f403 6380 	and.w	r3, r3, #1024	@ 0x400
 80026dc:	2b00      	cmp	r3, #0
 80026de:	d005      	beq.n	80026ec <HAL_RCC_OscConfig+0x154>
 80026e0:	687b      	ldr	r3, [r7, #4]
 80026e2:	68db      	ldr	r3, [r3, #12]
 80026e4:	2b00      	cmp	r3, #0
 80026e6:	d101      	bne.n	80026ec <HAL_RCC_OscConfig+0x154>
 80026e8:	2301      	movs	r3, #1
 80026ea:	e25d      	b.n	8002ba8 <HAL_RCC_OscConfig+0x610>
 80026ec:	4b49      	ldr	r3, [pc, #292]	@ (8002814 <HAL_RCC_OscConfig+0x27c>)
 80026ee:	685b      	ldr	r3, [r3, #4]
 80026f0:	f023 42fe 	bic.w	r2, r3, #2130706432	@ 0x7f000000
 80026f4:	687b      	ldr	r3, [r7, #4]
 80026f6:	691b      	ldr	r3, [r3, #16]
 80026f8:	061b      	lsls	r3, r3, #24
 80026fa:	4946      	ldr	r1, [pc, #280]	@ (8002814 <HAL_RCC_OscConfig+0x27c>)
 80026fc:	4313      	orrs	r3, r2
 80026fe:	604b      	str	r3, [r1, #4]
 8002700:	4b45      	ldr	r3, [pc, #276]	@ (8002818 <HAL_RCC_OscConfig+0x280>)
 8002702:	681b      	ldr	r3, [r3, #0]
 8002704:	4618      	mov	r0, r3
 8002706:	f7fe ff35 	bl	8001574 <HAL_InitTick>
 800270a:	4603      	mov	r3, r0
 800270c:	2b00      	cmp	r3, #0
 800270e:	d043      	beq.n	8002798 <HAL_RCC_OscConfig+0x200>
 8002710:	2301      	movs	r3, #1
 8002712:	e249      	b.n	8002ba8 <HAL_RCC_OscConfig+0x610>
 8002714:	687b      	ldr	r3, [r7, #4]
 8002716:	68db      	ldr	r3, [r3, #12]
 8002718:	2b00      	cmp	r3, #0
 800271a:	d023      	beq.n	8002764 <HAL_RCC_OscConfig+0x1cc>
 800271c:	4b3d      	ldr	r3, [pc, #244]	@ (8002814 <HAL_RCC_OscConfig+0x27c>)
 800271e:	681b      	ldr	r3, [r3, #0]
 8002720:	4a3c      	ldr	r2, [pc, #240]	@ (8002814 <HAL_RCC_OscConfig+0x27c>)
 8002722:	f443 7380 	orr.w	r3, r3, #256	@ 0x100
 8002726:	6013      	str	r3, [r2, #0]
 8002728:	f7fe ff70 	bl	800160c <HAL_GetTick>
 800272c:	6138      	str	r0, [r7, #16]
 800272e:	e008      	b.n	8002742 <HAL_RCC_OscConfig+0x1aa>
 8002730:	f7fe ff6c 	bl	800160c <HAL_GetTick>
 8002734:	4602      	mov	r2, r0
 8002736:	693b      	ldr	r3, [r7, #16]
 8002738:	1ad3      	subs	r3, r2, r3
 800273a:	2b02      	cmp	r3, #2
 800273c:	d901      	bls.n	8002742 <HAL_RCC_OscConfig+0x1aa>
 800273e:	2303      	movs	r3, #3
 8002740:	e232      	b.n	8002ba8 <HAL_RCC_OscConfig+0x610>
 8002742:	4b34      	ldr	r3, [pc, #208]	@ (8002814 <HAL_RCC_OscConfig+0x27c>)
 8002744:	681b      	ldr	r3, [r3, #0]
 8002746:	f403 6380 	and.w	r3, r3, #1024	@ 0x400
 800274a:	2b00      	cmp	r3, #0
 800274c:	d0f0      	beq.n	8002730 <HAL_RCC_OscConfig+0x198>
 800274e:	4b31      	ldr	r3, [pc, #196]	@ (8002814 <HAL_RCC_OscConfig+0x27c>)
 8002750:	685b      	ldr	r3, [r3, #4]
 8002752:	f023 42fe 	bic.w	r2, r3, #2130706432	@ 0x7f000000
 8002756:	687b      	ldr	r3, [r7, #4]
 8002758:	691b      	ldr	r3, [r3, #16]
 800275a:	061b      	lsls	r3, r3, #24
 800275c:	492d      	ldr	r1, [pc, #180]	@ (8002814 <HAL_RCC_OscConfig+0x27c>)
 800275e:	4313      	orrs	r3, r2
 8002760:	604b      	str	r3, [r1, #4]
 8002762:	e01a      	b.n	800279a <HAL_RCC_OscConfig+0x202>
 8002764:	4b2b      	ldr	r3, [pc, #172]	@ (8002814 <HAL_RCC_OscConfig+0x27c>)
 8002766:	681b      	ldr	r3, [r3, #0]
 8002768:	4a2a      	ldr	r2, [pc, #168]	@ (8002814 <HAL_RCC_OscConfig+0x27c>)
 800276a:	f423 7380 	bic.w	r3, r3, #256	@ 0x100
 800276e:	6013      	str	r3, [r2, #0]
 8002770:	f7fe ff4c 	bl	800160c <HAL_GetTick>
 8002774:	6138      	str	r0, [r7, #16]
 8002776:	e008      	b.n	800278a <HAL_RCC_OscConfig+0x1f2>
 8002778:	f7fe ff48 	bl	800160c <HAL_GetTick>
 800277c:	4602      	mov	r2, r0
 800277e:	693b      	ldr	r3, [r7, #16]
 8002780:	1ad3      	subs	r3, r2, r3
 8002782:	2b02      	cmp	r3, #2
 8002784:	d901      	bls.n	800278a <HAL_RCC_OscConfig+0x1f2>
 8002786:	2303      	movs	r3, #3
 8002788:	e20e      	b.n	8002ba8 <HAL_RCC_OscConfig+0x610>
 800278a:	4b22      	ldr	r3, [pc, #136]	@ (8002814 <HAL_RCC_OscConfig+0x27c>)
 800278c:	681b      	ldr	r3, [r3, #0]
 800278e:	f403 6380 	and.w	r3, r3, #1024	@ 0x400
 8002792:	2b00      	cmp	r3, #0
 8002794:	d1f0      	bne.n	8002778 <HAL_RCC_OscConfig+0x1e0>
 8002796:	e000      	b.n	800279a <HAL_RCC_OscConfig+0x202>
 8002798:	bf00      	nop
 800279a:	687b      	ldr	r3, [r7, #4]
 800279c:	681b      	ldr	r3, [r3, #0]
 800279e:	f003 0308 	and.w	r3, r3, #8
 80027a2:	2b00      	cmp	r3, #0
 80027a4:	d041      	beq.n	800282a <HAL_RCC_OscConfig+0x292>
 80027a6:	687b      	ldr	r3, [r7, #4]
 80027a8:	695b      	ldr	r3, [r3, #20]
 80027aa:	2b00      	cmp	r3, #0
 80027ac:	d01c      	beq.n	80027e8 <HAL_RCC_OscConfig+0x250>
 80027ae:	4b19      	ldr	r3, [pc, #100]	@ (8002814 <HAL_RCC_OscConfig+0x27c>)
 80027b0:	f8d3 3094 	ldr.w	r3, [r3, #148]	@ 0x94
 80027b4:	4a17      	ldr	r2, [pc, #92]	@ (8002814 <HAL_RCC_OscConfig+0x27c>)
 80027b6:	f043 0301 	orr.w	r3, r3, #1
 80027ba:	f8c2 3094 	str.w	r3, [r2, #148]	@ 0x94
 80027be:	f7fe ff25 	bl	800160c <HAL_GetTick>
 80027c2:	6138      	str	r0, [r7, #16]
 80027c4:	e008      	b.n	80027d8 <HAL_RCC_OscConfig+0x240>
 80027c6:	f7fe ff21 	bl	800160c <HAL_GetTick>
 80027ca:	4602      	mov	r2, r0
 80027cc:	693b      	ldr	r3, [r7, #16]
 80027ce:	1ad3      	subs	r3, r2, r3
 80027d0:	2b02      	cmp	r3, #2
 80027d2:	d901      	bls.n	80027d8 <HAL_RCC_OscConfig+0x240>
 80027d4:	2303      	movs	r3, #3
 80027d6:	e1e7      	b.n	8002ba8 <HAL_RCC_OscConfig+0x610>
 80027d8:	4b0e      	ldr	r3, [pc, #56]	@ (8002814 <HAL_RCC_OscConfig+0x27c>)
 80027da:	f8d3 3094 	ldr.w	r3, [r3, #148]	@ 0x94
 80027de:	f003 0302 	and.w	r3, r3, #2
 80027e2:	2b00      	cmp	r3, #0
 80027e4:	d0ef      	beq.n	80027c6 <HAL_RCC_OscConfig+0x22e>
 80027e6:	e020      	b.n	800282a <HAL_RCC_OscConfig+0x292>
 80027e8:	4b0a      	ldr	r3, [pc, #40]	@ (8002814 <HAL_RCC_OscConfig+0x27c>)
 80027ea:	f8d3 3094 	ldr.w	r3, [r3, #148]	@ 0x94
 80027ee:	4a09      	ldr	r2, [pc, #36]	@ (8002814 <HAL_RCC_OscConfig+0x27c>)
 80027f0:	f023 0301 	bic.w	r3, r3, #1
 80027f4:	f8c2 3094 	str.w	r3, [r2, #148]	@ 0x94
 80027f8:	f7fe ff08 	bl	800160c <HAL_GetTick>
 80027fc:	6138      	str	r0, [r7, #16]
 80027fe:	e00d      	b.n	800281c <HAL_RCC_OscConfig+0x284>
 8002800:	f7fe ff04 	bl	800160c <HAL_GetTick>
 8002804:	4602      	mov	r2, r0
 8002806:	693b      	ldr	r3, [r7, #16]
 8002808:	1ad3      	subs	r3, r2, r3
 800280a:	2b02      	cmp	r3, #2
 800280c:	d906      	bls.n	800281c <HAL_RCC_OscConfig+0x284>
 800280e:	2303      	movs	r3, #3
 8002810:	e1ca      	b.n	8002ba8 <HAL_RCC_OscConfig+0x610>
 8002812:	bf00      	nop
 8002814:	40021000 	.word	0x40021000
 8002818:	20000048 	.word	0x20000048
 800281c:	4b8c      	ldr	r3, [pc, #560]	@ (8002a50 <HAL_RCC_OscConfig+0x4b8>)
 800281e:	f8d3 3094 	ldr.w	r3, [r3, #148]	@ 0x94
 8002822:	f003 0302 	and.w	r3, r3, #2
 8002826:	2b00      	cmp	r3, #0
 8002828:	d1ea      	bne.n	8002800 <HAL_RCC_OscConfig+0x268>
 800282a:	687b      	ldr	r3, [r7, #4]
 800282c:	681b      	ldr	r3, [r3, #0]
 800282e:	f003 0304 	and.w	r3, r3, #4
 8002832:	2b00      	cmp	r3, #0
 8002834:	f000 80a6 	beq.w	8002984 <HAL_RCC_OscConfig+0x3ec>
 8002838:	2300      	movs	r3, #0
 800283a:	77fb      	strb	r3, [r7, #31]
 800283c:	4b84      	ldr	r3, [pc, #528]	@ (8002a50 <HAL_RCC_OscConfig+0x4b8>)
 800283e:	6d9b      	ldr	r3, [r3, #88]	@ 0x58
 8002840:	f003 5380 	and.w	r3, r3, #268435456	@ 0x10000000
 8002844:	2b00      	cmp	r3, #0
 8002846:	d101      	bne.n	800284c <HAL_RCC_OscConfig+0x2b4>
 8002848:	2301      	movs	r3, #1
 800284a:	e000      	b.n	800284e <HAL_RCC_OscConfig+0x2b6>
 800284c:	2300      	movs	r3, #0
 800284e:	2b00      	cmp	r3, #0
 8002850:	d00d      	beq.n	800286e <HAL_RCC_OscConfig+0x2d6>
 8002852:	4b7f      	ldr	r3, [pc, #508]	@ (8002a50 <HAL_RCC_OscConfig+0x4b8>)
 8002854:	6d9b      	ldr	r3, [r3, #88]	@ 0x58
 8002856:	4a7e      	ldr	r2, [pc, #504]	@ (8002a50 <HAL_RCC_OscConfig+0x4b8>)
 8002858:	f043 5380 	orr.w	r3, r3, #268435456	@ 0x10000000
 800285c:	6593      	str	r3, [r2, #88]	@ 0x58
 800285e:	4b7c      	ldr	r3, [pc, #496]	@ (8002a50 <HAL_RCC_OscConfig+0x4b8>)
 8002860:	6d9b      	ldr	r3, [r3, #88]	@ 0x58
 8002862:	f003 5380 	and.w	r3, r3, #268435456	@ 0x10000000
 8002866:	60fb      	str	r3, [r7, #12]
 8002868:	68fb      	ldr	r3, [r7, #12]
 800286a:	2301      	movs	r3, #1
 800286c:	77fb      	strb	r3, [r7, #31]
 800286e:	4b79      	ldr	r3, [pc, #484]	@ (8002a54 <HAL_RCC_OscConfig+0x4bc>)
 8002870:	681b      	ldr	r3, [r3, #0]
 8002872:	f403 7380 	and.w	r3, r3, #256	@ 0x100
 8002876:	2b00      	cmp	r3, #0
 8002878:	d118      	bne.n	80028ac <HAL_RCC_OscConfig+0x314>
 800287a:	4b76      	ldr	r3, [pc, #472]	@ (8002a54 <HAL_RCC_OscConfig+0x4bc>)
 800287c:	681b      	ldr	r3, [r3, #0]
 800287e:	4a75      	ldr	r2, [pc, #468]	@ (8002a54 <HAL_RCC_OscConfig+0x4bc>)
 8002880:	f443 7380 	orr.w	r3, r3, #256	@ 0x100
 8002884:	6013      	str	r3, [r2, #0]
 8002886:	f7fe fec1 	bl	800160c <HAL_GetTick>
 800288a:	6138      	str	r0, [r7, #16]
 800288c:	e008      	b.n	80028a0 <HAL_RCC_OscConfig+0x308>
 800288e:	f7fe febd 	bl	800160c <HAL_GetTick>
 8002892:	4602      	mov	r2, r0
 8002894:	693b      	ldr	r3, [r7, #16]
 8002896:	1ad3      	subs	r3, r2, r3
 8002898:	2b02      	cmp	r3, #2
 800289a:	d901      	bls.n	80028a0 <HAL_RCC_OscConfig+0x308>
 800289c:	2303      	movs	r3, #3
 800289e:	e183      	b.n	8002ba8 <HAL_RCC_OscConfig+0x610>
 80028a0:	4b6c      	ldr	r3, [pc, #432]	@ (8002a54 <HAL_RCC_OscConfig+0x4bc>)
 80028a2:	681b      	ldr	r3, [r3, #0]
 80028a4:	f403 7380 	and.w	r3, r3, #256	@ 0x100
 80028a8:	2b00      	cmp	r3, #0
 80028aa:	d0f0      	beq.n	800288e <HAL_RCC_OscConfig+0x2f6>
 80028ac:	687b      	ldr	r3, [r7, #4]
 80028ae:	689b      	ldr	r3, [r3, #8]
 80028b0:	2b01      	cmp	r3, #1
 80028b2:	d108      	bne.n	80028c6 <HAL_RCC_OscConfig+0x32e>
 80028b4:	4b66      	ldr	r3, [pc, #408]	@ (8002a50 <HAL_RCC_OscConfig+0x4b8>)
 80028b6:	f8d3 3090 	ldr.w	r3, [r3, #144]	@ 0x90
 80028ba:	4a65      	ldr	r2, [pc, #404]	@ (8002a50 <HAL_RCC_OscConfig+0x4b8>)
 80028bc:	f043 0301 	orr.w	r3, r3, #1
 80028c0:	f8c2 3090 	str.w	r3, [r2, #144]	@ 0x90
 80028c4:	e024      	b.n	8002910 <HAL_RCC_OscConfig+0x378>
 80028c6:	687b      	ldr	r3, [r7, #4]
 80028c8:	689b      	ldr	r3, [r3, #8]
 80028ca:	2b05      	cmp	r3, #5
 80028cc:	d110      	bne.n	80028f0 <HAL_RCC_OscConfig+0x358>
 80028ce:	4b60      	ldr	r3, [pc, #384]	@ (8002a50 <HAL_RCC_OscConfig+0x4b8>)
 80028d0:	f8d3 3090 	ldr.w	r3, [r3, #144]	@ 0x90
 80028d4:	4a5e      	ldr	r2, [pc, #376]	@ (8002a50 <HAL_RCC_OscConfig+0x4b8>)
 80028d6:	f043 0304 	orr.w	r3, r3, #4
 80028da:	f8c2 3090 	str.w	r3, [r2, #144]	@ 0x90
 80028de:	4b5c      	ldr	r3, [pc, #368]	@ (8002a50 <HAL_RCC_OscConfig+0x4b8>)
 80028e0:	f8d3 3090 	ldr.w	r3, [r3, #144]	@ 0x90
 80028e4:	4a5a      	ldr	r2, [pc, #360]	@ (8002a50 <HAL_RCC_OscConfig+0x4b8>)
 80028e6:	f043 0301 	orr.w	r3, r3, #1
 80028ea:	f8c2 3090 	str.w	r3, [r2, #144]	@ 0x90
 80028ee:	e00f      	b.n	8002910 <HAL_RCC_OscConfig+0x378>
 80028f0:	4b57      	ldr	r3, [pc, #348]	@ (8002a50 <HAL_RCC_OscConfig+0x4b8>)
 80028f2:	f8d3 3090 	ldr.w	r3, [r3, #144]	@ 0x90
 80028f6:	4a56      	ldr	r2, [pc, #344]	@ (8002a50 <HAL_RCC_OscConfig+0x4b8>)
 80028f8:	f023 0301 	bic.w	r3, r3, #1
 80028fc:	f8c2 3090 	str.w	r3, [r2, #144]	@ 0x90
 8002900:	4b53      	ldr	r3, [pc, #332]	@ (8002a50 <HAL_RCC_OscConfig+0x4b8>)
 8002902:	f8d3 3090 	ldr.w	r3, [r3, #144]	@ 0x90
 8002906:	4a52      	ldr	r2, [pc, #328]	@ (8002a50 <HAL_RCC_OscConfig+0x4b8>)
 8002908:	f023 0304 	bic.w	r3, r3, #4
 800290c:	f8c2 3090 	str.w	r3, [r2, #144]	@ 0x90
 8002910:	687b      	ldr	r3, [r7, #4]
 8002912:	689b      	ldr	r3, [r3, #8]
 8002914:	2b00      	cmp	r3, #0
 8002916:	d016      	beq.n	8002946 <HAL_RCC_OscConfig+0x3ae>
 8002918:	f7fe fe78 	bl	800160c <HAL_GetTick>
 800291c:	6138      	str	r0, [r7, #16]
 800291e:	e00a      	b.n	8002936 <HAL_RCC_OscConfig+0x39e>
 8002920:	f7fe fe74 	bl	800160c <HAL_GetTick>
 8002924:	4602      	mov	r2, r0
 8002926:	693b      	ldr	r3, [r7, #16]
 8002928:	1ad3      	subs	r3, r2, r3
 800292a:	f241 3288 	movw	r2, #5000	@ 0x1388
 800292e:	4293      	cmp	r3, r2
 8002930:	d901      	bls.n	8002936 <HAL_RCC_OscConfig+0x39e>
 8002932:	2303      	movs	r3, #3
 8002934:	e138      	b.n	8002ba8 <HAL_RCC_OscConfig+0x610>
 8002936:	4b46      	ldr	r3, [pc, #280]	@ (8002a50 <HAL_RCC_OscConfig+0x4b8>)
 8002938:	f8d3 3090 	ldr.w	r3, [r3, #144]	@ 0x90
 800293c:	f003 0302 	and.w	r3, r3, #2
 8002940:	2b00      	cmp	r3, #0
 8002942:	d0ed      	beq.n	8002920 <HAL_RCC_OscConfig+0x388>
 8002944:	e015      	b.n	8002972 <HAL_RCC_OscConfig+0x3da>
 8002946:	f7fe fe61 	bl	800160c <HAL_GetTick>
 800294a:	6138      	str	r0, [r7, #16]
 800294c:	e00a      	b.n	8002964 <HAL_RCC_OscConfig+0x3cc>
 800294e:	f7fe fe5d 	bl	800160c <HAL_GetTick>
 8002952:	4602      	mov	r2, r0
 8002954:	693b      	ldr	r3, [r7, #16]
 8002956:	1ad3      	subs	r3, r2, r3
 8002958:	f241 3288 	movw	r2, #5000	@ 0x1388
 800295c:	4293      	cmp	r3, r2
 800295e:	d901      	bls.n	8002964 <HAL_RCC_OscConfig+0x3cc>
 8002960:	2303      	movs	r3, #3
 8002962:	e121      	b.n	8002ba8 <HAL_RCC_OscConfig+0x610>
 8002964:	4b3a      	ldr	r3, [pc, #232]	@ (8002a50 <HAL_RCC_OscConfig+0x4b8>)
 8002966:	f8d3 3090 	ldr.w	r3, [r3, #144]	@ 0x90
 800296a:	f003 0302 	and.w	r3, r3, #2
 800296e:	2b00      	cmp	r3, #0
 8002970:	d1ed      	bne.n	800294e <HAL_RCC_OscConfig+0x3b6>
 8002972:	7ffb      	ldrb	r3, [r7, #31]
 8002974:	2b01      	cmp	r3, #1
 8002976:	d105      	bne.n	8002984 <HAL_RCC_OscConfig+0x3ec>
 8002978:	4b35      	ldr	r3, [pc, #212]	@ (8002a50 <HAL_RCC_OscConfig+0x4b8>)
 800297a:	6d9b      	ldr	r3, [r3, #88]	@ 0x58
 800297c:	4a34      	ldr	r2, [pc, #208]	@ (8002a50 <HAL_RCC_OscConfig+0x4b8>)
 800297e:	f023 5380 	bic.w	r3, r3, #268435456	@ 0x10000000
 8002982:	6593      	str	r3, [r2, #88]	@ 0x58
 8002984:	687b      	ldr	r3, [r7, #4]
 8002986:	681b      	ldr	r3, [r3, #0]
 8002988:	f003 0320 	and.w	r3, r3, #32
 800298c:	2b00      	cmp	r3, #0
 800298e:	d03c      	beq.n	8002a0a <HAL_RCC_OscConfig+0x472>
 8002990:	687b      	ldr	r3, [r7, #4]
 8002992:	699b      	ldr	r3, [r3, #24]
 8002994:	2b00      	cmp	r3, #0
 8002996:	d01c      	beq.n	80029d2 <HAL_RCC_OscConfig+0x43a>
 8002998:	4b2d      	ldr	r3, [pc, #180]	@ (8002a50 <HAL_RCC_OscConfig+0x4b8>)
 800299a:	f8d3 3098 	ldr.w	r3, [r3, #152]	@ 0x98
 800299e:	4a2c      	ldr	r2, [pc, #176]	@ (8002a50 <HAL_RCC_OscConfig+0x4b8>)
 80029a0:	f043 0301 	orr.w	r3, r3, #1
 80029a4:	f8c2 3098 	str.w	r3, [r2, #152]	@ 0x98
 80029a8:	f7fe fe30 	bl	800160c <HAL_GetTick>
 80029ac:	6138      	str	r0, [r7, #16]
 80029ae:	e008      	b.n	80029c2 <HAL_RCC_OscConfig+0x42a>
 80029b0:	f7fe fe2c 	bl	800160c <HAL_GetTick>
 80029b4:	4602      	mov	r2, r0
 80029b6:	693b      	ldr	r3, [r7, #16]
 80029b8:	1ad3      	subs	r3, r2, r3
 80029ba:	2b02      	cmp	r3, #2
 80029bc:	d901      	bls.n	80029c2 <HAL_RCC_OscConfig+0x42a>
 80029be:	2303      	movs	r3, #3
 80029c0:	e0f2      	b.n	8002ba8 <HAL_RCC_OscConfig+0x610>
 80029c2:	4b23      	ldr	r3, [pc, #140]	@ (8002a50 <HAL_RCC_OscConfig+0x4b8>)
 80029c4:	f8d3 3098 	ldr.w	r3, [r3, #152]	@ 0x98
 80029c8:	f003 0302 	and.w	r3, r3, #2
 80029cc:	2b00      	cmp	r3, #0
 80029ce:	d0ef      	beq.n	80029b0 <HAL_RCC_OscConfig+0x418>
 80029d0:	e01b      	b.n	8002a0a <HAL_RCC_OscConfig+0x472>
 80029d2:	4b1f      	ldr	r3, [pc, #124]	@ (8002a50 <HAL_RCC_OscConfig+0x4b8>)
 80029d4:	f8d3 3098 	ldr.w	r3, [r3, #152]	@ 0x98
 80029d8:	4a1d      	ldr	r2, [pc, #116]	@ (8002a50 <HAL_RCC_OscConfig+0x4b8>)
 80029da:	f023 0301 	bic.w	r3, r3, #1
 80029de:	f8c2 3098 	str.w	r3, [r2, #152]	@ 0x98
 80029e2:	f7fe fe13 	bl	800160c <HAL_GetTick>
 80029e6:	6138      	str	r0, [r7, #16]
 80029e8:	e008      	b.n	80029fc <HAL_RCC_OscConfig+0x464>
 80029ea:	f7fe fe0f 	bl	800160c <HAL_GetTick>
 80029ee:	4602      	mov	r2, r0
 80029f0:	693b      	ldr	r3, [r7, #16]
 80029f2:	1ad3      	subs	r3, r2, r3
 80029f4:	2b02      	cmp	r3, #2
 80029f6:	d901      	bls.n	80029fc <HAL_RCC_OscConfig+0x464>
 80029f8:	2303      	movs	r3, #3
 80029fa:	e0d5      	b.n	8002ba8 <HAL_RCC_OscConfig+0x610>
 80029fc:	4b14      	ldr	r3, [pc, #80]	@ (8002a50 <HAL_RCC_OscConfig+0x4b8>)
 80029fe:	f8d3 3098 	ldr.w	r3, [r3, #152]	@ 0x98
 8002a02:	f003 0302 	and.w	r3, r3, #2
 8002a06:	2b00      	cmp	r3, #0
 8002a08:	d1ef      	bne.n	80029ea <HAL_RCC_OscConfig+0x452>
 8002a0a:	687b      	ldr	r3, [r7, #4]
 8002a0c:	69db      	ldr	r3, [r3, #28]
 8002a0e:	2b00      	cmp	r3, #0
 8002a10:	f000 80c9 	beq.w	8002ba6 <HAL_RCC_OscConfig+0x60e>
 8002a14:	4b0e      	ldr	r3, [pc, #56]	@ (8002a50 <HAL_RCC_OscConfig+0x4b8>)
 8002a16:	689b      	ldr	r3, [r3, #8]
 8002a18:	f003 030c 	and.w	r3, r3, #12
 8002a1c:	2b0c      	cmp	r3, #12
 8002a1e:	f000 8083 	beq.w	8002b28 <HAL_RCC_OscConfig+0x590>
 8002a22:	687b      	ldr	r3, [r7, #4]
 8002a24:	69db      	ldr	r3, [r3, #28]
 8002a26:	2b02      	cmp	r3, #2
 8002a28:	d15e      	bne.n	8002ae8 <HAL_RCC_OscConfig+0x550>
 8002a2a:	4b09      	ldr	r3, [pc, #36]	@ (8002a50 <HAL_RCC_OscConfig+0x4b8>)
 8002a2c:	681b      	ldr	r3, [r3, #0]
 8002a2e:	4a08      	ldr	r2, [pc, #32]	@ (8002a50 <HAL_RCC_OscConfig+0x4b8>)
 8002a30:	f023 7380 	bic.w	r3, r3, #16777216	@ 0x1000000
 8002a34:	6013      	str	r3, [r2, #0]
 8002a36:	f7fe fde9 	bl	800160c <HAL_GetTick>
 8002a3a:	6138      	str	r0, [r7, #16]
 8002a3c:	e00c      	b.n	8002a58 <HAL_RCC_OscConfig+0x4c0>
 8002a3e:	f7fe fde5 	bl	800160c <HAL_GetTick>
 8002a42:	4602      	mov	r2, r0
 8002a44:	693b      	ldr	r3, [r7, #16]
 8002a46:	1ad3      	subs	r3, r2, r3
 8002a48:	2b02      	cmp	r3, #2
 8002a4a:	d905      	bls.n	8002a58 <HAL_RCC_OscConfig+0x4c0>
 8002a4c:	2303      	movs	r3, #3
 8002a4e:	e0ab      	b.n	8002ba8 <HAL_RCC_OscConfig+0x610>
 8002a50:	40021000 	.word	0x40021000
 8002a54:	40007000 	.word	0x40007000
 8002a58:	4b55      	ldr	r3, [pc, #340]	@ (8002bb0 <HAL_RCC_OscConfig+0x618>)
 8002a5a:	681b      	ldr	r3, [r3, #0]
 8002a5c:	f003 7300 	and.w	r3, r3, #33554432	@ 0x2000000
 8002a60:	2b00      	cmp	r3, #0
 8002a62:	d1ec      	bne.n	8002a3e <HAL_RCC_OscConfig+0x4a6>
 8002a64:	4b52      	ldr	r3, [pc, #328]	@ (8002bb0 <HAL_RCC_OscConfig+0x618>)
 8002a66:	68da      	ldr	r2, [r3, #12]
 8002a68:	4b52      	ldr	r3, [pc, #328]	@ (8002bb4 <HAL_RCC_OscConfig+0x61c>)
 8002a6a:	4013      	ands	r3, r2
 8002a6c:	687a      	ldr	r2, [r7, #4]
 8002a6e:	6a11      	ldr	r1, [r2, #32]
 8002a70:	687a      	ldr	r2, [r7, #4]
 8002a72:	6a52      	ldr	r2, [r2, #36]	@ 0x24
 8002a74:	3a01      	subs	r2, #1
 8002a76:	0112      	lsls	r2, r2, #4
 8002a78:	4311      	orrs	r1, r2
 8002a7a:	687a      	ldr	r2, [r7, #4]
 8002a7c:	6a92      	ldr	r2, [r2, #40]	@ 0x28
 8002a7e:	0212      	lsls	r2, r2, #8
 8002a80:	4311      	orrs	r1, r2
 8002a82:	687a      	ldr	r2, [r7, #4]
 8002a84:	6b12      	ldr	r2, [r2, #48]	@ 0x30
 8002a86:	0852      	lsrs	r2, r2, #1
 8002a88:	3a01      	subs	r2, #1
 8002a8a:	0552      	lsls	r2, r2, #21
 8002a8c:	4311      	orrs	r1, r2
 8002a8e:	687a      	ldr	r2, [r7, #4]
 8002a90:	6b52      	ldr	r2, [r2, #52]	@ 0x34
 8002a92:	0852      	lsrs	r2, r2, #1
 8002a94:	3a01      	subs	r2, #1
 8002a96:	0652      	lsls	r2, r2, #25
 8002a98:	4311      	orrs	r1, r2
 8002a9a:	687a      	ldr	r2, [r7, #4]
 8002a9c:	6ad2      	ldr	r2, [r2, #44]	@ 0x2c
 8002a9e:	06d2      	lsls	r2, r2, #27
 8002aa0:	430a      	orrs	r2, r1
 8002aa2:	4943      	ldr	r1, [pc, #268]	@ (8002bb0 <HAL_RCC_OscConfig+0x618>)
 8002aa4:	4313      	orrs	r3, r2
 8002aa6:	60cb      	str	r3, [r1, #12]
 8002aa8:	4b41      	ldr	r3, [pc, #260]	@ (8002bb0 <HAL_RCC_OscConfig+0x618>)
 8002aaa:	681b      	ldr	r3, [r3, #0]
 8002aac:	4a40      	ldr	r2, [pc, #256]	@ (8002bb0 <HAL_RCC_OscConfig+0x618>)
 8002aae:	f043 7380 	orr.w	r3, r3, #16777216	@ 0x1000000
 8002ab2:	6013      	str	r3, [r2, #0]
 8002ab4:	4b3e      	ldr	r3, [pc, #248]	@ (8002bb0 <HAL_RCC_OscConfig+0x618>)
 8002ab6:	68db      	ldr	r3, [r3, #12]
 8002ab8:	4a3d      	ldr	r2, [pc, #244]	@ (8002bb0 <HAL_RCC_OscConfig+0x618>)
 8002aba:	f043 7380 	orr.w	r3, r3, #16777216	@ 0x1000000
 8002abe:	60d3      	str	r3, [r2, #12]
 8002ac0:	f7fe fda4 	bl	800160c <HAL_GetTick>
 8002ac4:	6138      	str	r0, [r7, #16]
 8002ac6:	e008      	b.n	8002ada <HAL_RCC_OscConfig+0x542>
 8002ac8:	f7fe fda0 	bl	800160c <HAL_GetTick>
 8002acc:	4602      	mov	r2, r0
 8002ace:	693b      	ldr	r3, [r7, #16]
 8002ad0:	1ad3      	subs	r3, r2, r3
 8002ad2:	2b02      	cmp	r3, #2
 8002ad4:	d901      	bls.n	8002ada <HAL_RCC_OscConfig+0x542>
 8002ad6:	2303      	movs	r3, #3
 8002ad8:	e066      	b.n	8002ba8 <HAL_RCC_OscConfig+0x610>
 8002ada:	4b35      	ldr	r3, [pc, #212]	@ (8002bb0 <HAL_RCC_OscConfig+0x618>)
 8002adc:	681b      	ldr	r3, [r3, #0]
 8002ade:	f003 7300 	and.w	r3, r3, #33554432	@ 0x2000000
 8002ae2:	2b00      	cmp	r3, #0
 8002ae4:	d0f0      	beq.n	8002ac8 <HAL_RCC_OscConfig+0x530>
 8002ae6:	e05e      	b.n	8002ba6 <HAL_RCC_OscConfig+0x60e>
 8002ae8:	4b31      	ldr	r3, [pc, #196]	@ (8002bb0 <HAL_RCC_OscConfig+0x618>)
 8002aea:	681b      	ldr	r3, [r3, #0]
 8002aec:	4a30      	ldr	r2, [pc, #192]	@ (8002bb0 <HAL_RCC_OscConfig+0x618>)
 8002aee:	f023 7380 	bic.w	r3, r3, #16777216	@ 0x1000000
 8002af2:	6013      	str	r3, [r2, #0]
 8002af4:	f7fe fd8a 	bl	800160c <HAL_GetTick>
 8002af8:	6138      	str	r0, [r7, #16]
 8002afa:	e008      	b.n	8002b0e <HAL_RCC_OscConfig+0x576>
 8002afc:	f7fe fd86 	bl	800160c <HAL_GetTick>
 8002b00:	4602      	mov	r2, r0
 8002b02:	693b      	ldr	r3, [r7, #16]
 8002b04:	1ad3      	subs	r3, r2, r3
 8002b06:	2b02      	cmp	r3, #2
 8002b08:	d901      	bls.n	8002b0e <HAL_RCC_OscConfig+0x576>
 8002b0a:	2303      	movs	r3, #3
 8002b0c:	e04c      	b.n	8002ba8 <HAL_RCC_OscConfig+0x610>
 8002b0e:	4b28      	ldr	r3, [pc, #160]	@ (8002bb0 <HAL_RCC_OscConfig+0x618>)
 8002b10:	681b      	ldr	r3, [r3, #0]
 8002b12:	f003 7300 	and.w	r3, r3, #33554432	@ 0x2000000
 8002b16:	2b00      	cmp	r3, #0
 8002b18:	d1f0      	bne.n	8002afc <HAL_RCC_OscConfig+0x564>
 8002b1a:	4b25      	ldr	r3, [pc, #148]	@ (8002bb0 <HAL_RCC_OscConfig+0x618>)
 8002b1c:	68da      	ldr	r2, [r3, #12]
 8002b1e:	4924      	ldr	r1, [pc, #144]	@ (8002bb0 <HAL_RCC_OscConfig+0x618>)
 8002b20:	4b25      	ldr	r3, [pc, #148]	@ (8002bb8 <HAL_RCC_OscConfig+0x620>)
 8002b22:	4013      	ands	r3, r2
 8002b24:	60cb      	str	r3, [r1, #12]
 8002b26:	e03e      	b.n	8002ba6 <HAL_RCC_OscConfig+0x60e>
 8002b28:	687b      	ldr	r3, [r7, #4]
 8002b2a:	69db      	ldr	r3, [r3, #28]
 8002b2c:	2b01      	cmp	r3, #1
 8002b2e:	d101      	bne.n	8002b34 <HAL_RCC_OscConfig+0x59c>
 8002b30:	2301      	movs	r3, #1
 8002b32:	e039      	b.n	8002ba8 <HAL_RCC_OscConfig+0x610>
 8002b34:	4b1e      	ldr	r3, [pc, #120]	@ (8002bb0 <HAL_RCC_OscConfig+0x618>)
 8002b36:	68db      	ldr	r3, [r3, #12]
 8002b38:	617b      	str	r3, [r7, #20]
 8002b3a:	697b      	ldr	r3, [r7, #20]
 8002b3c:	f003 0203 	and.w	r2, r3, #3
 8002b40:	687b      	ldr	r3, [r7, #4]
 8002b42:	6a1b      	ldr	r3, [r3, #32]
 8002b44:	429a      	cmp	r2, r3
 8002b46:	d12c      	bne.n	8002ba2 <HAL_RCC_OscConfig+0x60a>
 8002b48:	697b      	ldr	r3, [r7, #20]
 8002b4a:	f003 02f0 	and.w	r2, r3, #240	@ 0xf0
 8002b4e:	687b      	ldr	r3, [r7, #4]
 8002b50:	6a5b      	ldr	r3, [r3, #36]	@ 0x24
 8002b52:	3b01      	subs	r3, #1
 8002b54:	011b      	lsls	r3, r3, #4
 8002b56:	429a      	cmp	r2, r3
 8002b58:	d123      	bne.n	8002ba2 <HAL_RCC_OscConfig+0x60a>
 8002b5a:	697b      	ldr	r3, [r7, #20]
 8002b5c:	f403 42fe 	and.w	r2, r3, #32512	@ 0x7f00
 8002b60:	687b      	ldr	r3, [r7, #4]
 8002b62:	6a9b      	ldr	r3, [r3, #40]	@ 0x28
 8002b64:	021b      	lsls	r3, r3, #8
 8002b66:	429a      	cmp	r2, r3
 8002b68:	d11b      	bne.n	8002ba2 <HAL_RCC_OscConfig+0x60a>
 8002b6a:	697b      	ldr	r3, [r7, #20]
 8002b6c:	f003 4278 	and.w	r2, r3, #4160749568	@ 0xf8000000
 8002b70:	687b      	ldr	r3, [r7, #4]
 8002b72:	6adb      	ldr	r3, [r3, #44]	@ 0x2c
 8002b74:	06db      	lsls	r3, r3, #27
 8002b76:	429a      	cmp	r2, r3
 8002b78:	d113      	bne.n	8002ba2 <HAL_RCC_OscConfig+0x60a>
 8002b7a:	697b      	ldr	r3, [r7, #20]
 8002b7c:	f403 02c0 	and.w	r2, r3, #6291456	@ 0x600000
 8002b80:	687b      	ldr	r3, [r7, #4]
 8002b82:	6b1b      	ldr	r3, [r3, #48]	@ 0x30
 8002b84:	085b      	lsrs	r3, r3, #1
 8002b86:	3b01      	subs	r3, #1
 8002b88:	055b      	lsls	r3, r3, #21
 8002b8a:	429a      	cmp	r2, r3
 8002b8c:	d109      	bne.n	8002ba2 <HAL_RCC_OscConfig+0x60a>
 8002b8e:	697b      	ldr	r3, [r7, #20]
 8002b90:	f003 62c0 	and.w	r2, r3, #100663296	@ 0x6000000
 8002b94:	687b      	ldr	r3, [r7, #4]
 8002b96:	6b5b      	ldr	r3, [r3, #52]	@ 0x34
 8002b98:	085b      	lsrs	r3, r3, #1
 8002b9a:	3b01      	subs	r3, #1
 8002b9c:	065b      	lsls	r3, r3, #25
 8002b9e:	429a      	cmp	r2, r3
 8002ba0:	d001      	beq.n	8002ba6 <HAL_RCC_OscConfig+0x60e>
 8002ba2:	2301      	movs	r3, #1
 8002ba4:	e000      	b.n	8002ba8 <HAL_RCC_OscConfig+0x610>
 8002ba6:	2300      	movs	r3, #0
 8002ba8:	4618      	mov	r0, r3
 8002baa:	3720      	adds	r7, #32
 8002bac:	46bd      	mov	sp, r7
 8002bae:	bd80      	pop	{r7, pc}
 8002bb0:	40021000 	.word	0x40021000
 8002bb4:	019f800c 	.word	0x019f800c
 8002bb8:	feeefffc 	.word	0xfeeefffc

08002bbc <HAL_RCC_ClockConfig>:
 8002bbc:	b580      	push	{r7, lr}
 8002bbe:	b086      	sub	sp, #24
 8002bc0:	af00      	add	r7, sp, #0
 8002bc2:	6078      	str	r0, [r7, #4]
 8002bc4:	6039      	str	r1, [r7, #0]
 8002bc6:	2300      	movs	r3, #0
 8002bc8:	617b      	str	r3, [r7, #20]
 8002bca:	687b      	ldr	r3, [r7, #4]
 8002bcc:	2b00      	cmp	r3, #0
 8002bce:	d101      	bne.n	8002bd4 <HAL_RCC_ClockConfig+0x18>
 8002bd0:	2301      	movs	r3, #1
 8002bd2:	e11e      	b.n	8002e12 <HAL_RCC_ClockConfig+0x256>
 8002bd4:	4b91      	ldr	r3, [pc, #580]	@ (8002e1c <HAL_RCC_ClockConfig+0x260>)
 8002bd6:	681b      	ldr	r3, [r3, #0]
 8002bd8:	f003 030f 	and.w	r3, r3, #15
 8002bdc:	683a      	ldr	r2, [r7, #0]
 8002bde:	429a      	cmp	r2, r3
 8002be0:	d910      	bls.n	8002c04 <HAL_RCC_ClockConfig+0x48>
 8002be2:	4b8e      	ldr	r3, [pc, #568]	@ (8002e1c <HAL_RCC_ClockConfig+0x260>)
 8002be4:	681b      	ldr	r3, [r3, #0]
 8002be6:	f023 020f 	bic.w	r2, r3, #15
 8002bea:	498c      	ldr	r1, [pc, #560]	@ (8002e1c <HAL_RCC_ClockConfig+0x260>)
 8002bec:	683b      	ldr	r3, [r7, #0]
 8002bee:	4313      	orrs	r3, r2
 8002bf0:	600b      	str	r3, [r1, #0]
 8002bf2:	4b8a      	ldr	r3, [pc, #552]	@ (8002e1c <HAL_RCC_ClockConfig+0x260>)
 8002bf4:	681b      	ldr	r3, [r3, #0]
 8002bf6:	f003 030f 	and.w	r3, r3, #15
 8002bfa:	683a      	ldr	r2, [r7, #0]
 8002bfc:	429a      	cmp	r2, r3
 8002bfe:	d001      	beq.n	8002c04 <HAL_RCC_ClockConfig+0x48>
 8002c00:	2301      	movs	r3, #1
 8002c02:	e106      	b.n	8002e12 <HAL_RCC_ClockConfig+0x256>
 8002c04:	687b      	ldr	r3, [r7, #4]
 8002c06:	681b      	ldr	r3, [r3, #0]
 8002c08:	f003 0301 	and.w	r3, r3, #1
 8002c0c:	2b00      	cmp	r3, #0
 8002c0e:	d073      	beq.n	8002cf8 <HAL_RCC_ClockConfig+0x13c>
 8002c10:	687b      	ldr	r3, [r7, #4]
 8002c12:	685b      	ldr	r3, [r3, #4]
 8002c14:	2b03      	cmp	r3, #3
 8002c16:	d129      	bne.n	8002c6c <HAL_RCC_ClockConfig+0xb0>
 8002c18:	4b81      	ldr	r3, [pc, #516]	@ (8002e20 <HAL_RCC_ClockConfig+0x264>)
 8002c1a:	681b      	ldr	r3, [r3, #0]
 8002c1c:	f003 7300 	and.w	r3, r3, #33554432	@ 0x2000000
 8002c20:	2b00      	cmp	r3, #0
 8002c22:	d101      	bne.n	8002c28 <HAL_RCC_ClockConfig+0x6c>
 8002c24:	2301      	movs	r3, #1
 8002c26:	e0f4      	b.n	8002e12 <HAL_RCC_ClockConfig+0x256>
 8002c28:	f000 f99e 	bl	8002f68 <RCC_GetSysClockFreqFromPLLSource>
 8002c2c:	6138      	str	r0, [r7, #16]
 8002c2e:	693b      	ldr	r3, [r7, #16]
 8002c30:	4a7c      	ldr	r2, [pc, #496]	@ (8002e24 <HAL_RCC_ClockConfig+0x268>)
 8002c32:	4293      	cmp	r3, r2
 8002c34:	d93f      	bls.n	8002cb6 <HAL_RCC_ClockConfig+0xfa>
 8002c36:	4b7a      	ldr	r3, [pc, #488]	@ (8002e20 <HAL_RCC_ClockConfig+0x264>)
 8002c38:	689b      	ldr	r3, [r3, #8]
 8002c3a:	f003 03f0 	and.w	r3, r3, #240	@ 0xf0
 8002c3e:	2b00      	cmp	r3, #0
 8002c40:	d009      	beq.n	8002c56 <HAL_RCC_ClockConfig+0x9a>
 8002c42:	687b      	ldr	r3, [r7, #4]
 8002c44:	681b      	ldr	r3, [r3, #0]
 8002c46:	f003 0302 	and.w	r3, r3, #2
 8002c4a:	2b00      	cmp	r3, #0
 8002c4c:	d033      	beq.n	8002cb6 <HAL_RCC_ClockConfig+0xfa>
 8002c4e:	687b      	ldr	r3, [r7, #4]
 8002c50:	689b      	ldr	r3, [r3, #8]
 8002c52:	2b00      	cmp	r3, #0
 8002c54:	d12f      	bne.n	8002cb6 <HAL_RCC_ClockConfig+0xfa>
 8002c56:	4b72      	ldr	r3, [pc, #456]	@ (8002e20 <HAL_RCC_ClockConfig+0x264>)
 8002c58:	689b      	ldr	r3, [r3, #8]
 8002c5a:	f023 03f0 	bic.w	r3, r3, #240	@ 0xf0
 8002c5e:	4a70      	ldr	r2, [pc, #448]	@ (8002e20 <HAL_RCC_ClockConfig+0x264>)
 8002c60:	f043 0380 	orr.w	r3, r3, #128	@ 0x80
 8002c64:	6093      	str	r3, [r2, #8]
 8002c66:	2380      	movs	r3, #128	@ 0x80
 8002c68:	617b      	str	r3, [r7, #20]
 8002c6a:	e024      	b.n	8002cb6 <HAL_RCC_ClockConfig+0xfa>
 8002c6c:	687b      	ldr	r3, [r7, #4]
 8002c6e:	685b      	ldr	r3, [r3, #4]
 8002c70:	2b02      	cmp	r3, #2
 8002c72:	d107      	bne.n	8002c84 <HAL_RCC_ClockConfig+0xc8>
 8002c74:	4b6a      	ldr	r3, [pc, #424]	@ (8002e20 <HAL_RCC_ClockConfig+0x264>)
 8002c76:	681b      	ldr	r3, [r3, #0]
 8002c78:	f403 3300 	and.w	r3, r3, #131072	@ 0x20000
 8002c7c:	2b00      	cmp	r3, #0
 8002c7e:	d109      	bne.n	8002c94 <HAL_RCC_ClockConfig+0xd8>
 8002c80:	2301      	movs	r3, #1
 8002c82:	e0c6      	b.n	8002e12 <HAL_RCC_ClockConfig+0x256>
 8002c84:	4b66      	ldr	r3, [pc, #408]	@ (8002e20 <HAL_RCC_ClockConfig+0x264>)
 8002c86:	681b      	ldr	r3, [r3, #0]
 8002c88:	f403 6380 	and.w	r3, r3, #1024	@ 0x400
 8002c8c:	2b00      	cmp	r3, #0
 8002c8e:	d101      	bne.n	8002c94 <HAL_RCC_ClockConfig+0xd8>
 8002c90:	2301      	movs	r3, #1
 8002c92:	e0be      	b.n	8002e12 <HAL_RCC_ClockConfig+0x256>
 8002c94:	f000 f8ce 	bl	8002e34 <HAL_RCC_GetSysClockFreq>
 8002c98:	6138      	str	r0, [r7, #16]
 8002c9a:	693b      	ldr	r3, [r7, #16]
 8002c9c:	4a61      	ldr	r2, [pc, #388]	@ (8002e24 <HAL_RCC_ClockConfig+0x268>)
 8002c9e:	4293      	cmp	r3, r2
 8002ca0:	d909      	bls.n	8002cb6 <HAL_RCC_ClockConfig+0xfa>
 8002ca2:	4b5f      	ldr	r3, [pc, #380]	@ (8002e20 <HAL_RCC_ClockConfig+0x264>)
 8002ca4:	689b      	ldr	r3, [r3, #8]
 8002ca6:	f023 03f0 	bic.w	r3, r3, #240	@ 0xf0
 8002caa:	4a5d      	ldr	r2, [pc, #372]	@ (8002e20 <HAL_RCC_ClockConfig+0x264>)
 8002cac:	f043 0380 	orr.w	r3, r3, #128	@ 0x80
 8002cb0:	6093      	str	r3, [r2, #8]
 8002cb2:	2380      	movs	r3, #128	@ 0x80
 8002cb4:	617b      	str	r3, [r7, #20]
 8002cb6:	4b5a      	ldr	r3, [pc, #360]	@ (8002e20 <HAL_RCC_ClockConfig+0x264>)
 8002cb8:	689b      	ldr	r3, [r3, #8]
 8002cba:	f023 0203 	bic.w	r2, r3, #3
 8002cbe:	687b      	ldr	r3, [r7, #4]
 8002cc0:	685b      	ldr	r3, [r3, #4]
 8002cc2:	4957      	ldr	r1, [pc, #348]	@ (8002e20 <HAL_RCC_ClockConfig+0x264>)
 8002cc4:	4313      	orrs	r3, r2
 8002cc6:	608b      	str	r3, [r1, #8]
 8002cc8:	f7fe fca0 	bl	800160c <HAL_GetTick>
 8002ccc:	60f8      	str	r0, [r7, #12]
 8002cce:	e00a      	b.n	8002ce6 <HAL_RCC_ClockConfig+0x12a>
 8002cd0:	f7fe fc9c 	bl	800160c <HAL_GetTick>
 8002cd4:	4602      	mov	r2, r0
 8002cd6:	68fb      	ldr	r3, [r7, #12]
 8002cd8:	1ad3      	subs	r3, r2, r3
 8002cda:	f241 3288 	movw	r2, #5000	@ 0x1388
 8002cde:	4293      	cmp	r3, r2
 8002ce0:	d901      	bls.n	8002ce6 <HAL_RCC_ClockConfig+0x12a>
 8002ce2:	2303      	movs	r3, #3
 8002ce4:	e095      	b.n	8002e12 <HAL_RCC_ClockConfig+0x256>
 8002ce6:	4b4e      	ldr	r3, [pc, #312]	@ (8002e20 <HAL_RCC_ClockConfig+0x264>)
 8002ce8:	689b      	ldr	r3, [r3, #8]
 8002cea:	f003 020c 	and.w	r2, r3, #12
 8002cee:	687b      	ldr	r3, [r7, #4]
 8002cf0:	685b      	ldr	r3, [r3, #4]
 8002cf2:	009b      	lsls	r3, r3, #2
 8002cf4:	429a      	cmp	r2, r3
 8002cf6:	d1eb      	bne.n	8002cd0 <HAL_RCC_ClockConfig+0x114>
 8002cf8:	687b      	ldr	r3, [r7, #4]
 8002cfa:	681b      	ldr	r3, [r3, #0]
 8002cfc:	f003 0302 	and.w	r3, r3, #2
 8002d00:	2b00      	cmp	r3, #0
 8002d02:	d023      	beq.n	8002d4c <HAL_RCC_ClockConfig+0x190>
 8002d04:	687b      	ldr	r3, [r7, #4]
 8002d06:	681b      	ldr	r3, [r3, #0]
 8002d08:	f003 0304 	and.w	r3, r3, #4
 8002d0c:	2b00      	cmp	r3, #0
 8002d0e:	d005      	beq.n	8002d1c <HAL_RCC_ClockConfig+0x160>
 8002d10:	4b43      	ldr	r3, [pc, #268]	@ (8002e20 <HAL_RCC_ClockConfig+0x264>)
 8002d12:	689b      	ldr	r3, [r3, #8]
 8002d14:	4a42      	ldr	r2, [pc, #264]	@ (8002e20 <HAL_RCC_ClockConfig+0x264>)
 8002d16:	f443 63e0 	orr.w	r3, r3, #1792	@ 0x700
 8002d1a:	6093      	str	r3, [r2, #8]
 8002d1c:	687b      	ldr	r3, [r7, #4]
 8002d1e:	681b      	ldr	r3, [r3, #0]
 8002d20:	f003 0308 	and.w	r3, r3, #8
 8002d24:	2b00      	cmp	r3, #0
 8002d26:	d007      	beq.n	8002d38 <HAL_RCC_ClockConfig+0x17c>
 8002d28:	4b3d      	ldr	r3, [pc, #244]	@ (8002e20 <HAL_RCC_ClockConfig+0x264>)
 8002d2a:	689b      	ldr	r3, [r3, #8]
 8002d2c:	f423 537c 	bic.w	r3, r3, #16128	@ 0x3f00
 8002d30:	4a3b      	ldr	r2, [pc, #236]	@ (8002e20 <HAL_RCC_ClockConfig+0x264>)
 8002d32:	f443 63e0 	orr.w	r3, r3, #1792	@ 0x700
 8002d36:	6093      	str	r3, [r2, #8]
 8002d38:	4b39      	ldr	r3, [pc, #228]	@ (8002e20 <HAL_RCC_ClockConfig+0x264>)
 8002d3a:	689b      	ldr	r3, [r3, #8]
 8002d3c:	f023 02f0 	bic.w	r2, r3, #240	@ 0xf0
 8002d40:	687b      	ldr	r3, [r7, #4]
 8002d42:	689b      	ldr	r3, [r3, #8]
 8002d44:	4936      	ldr	r1, [pc, #216]	@ (8002e20 <HAL_RCC_ClockConfig+0x264>)
 8002d46:	4313      	orrs	r3, r2
 8002d48:	608b      	str	r3, [r1, #8]
 8002d4a:	e008      	b.n	8002d5e <HAL_RCC_ClockConfig+0x1a2>
 8002d4c:	697b      	ldr	r3, [r7, #20]
 8002d4e:	2b80      	cmp	r3, #128	@ 0x80
 8002d50:	d105      	bne.n	8002d5e <HAL_RCC_ClockConfig+0x1a2>
 8002d52:	4b33      	ldr	r3, [pc, #204]	@ (8002e20 <HAL_RCC_ClockConfig+0x264>)
 8002d54:	689b      	ldr	r3, [r3, #8]
 8002d56:	4a32      	ldr	r2, [pc, #200]	@ (8002e20 <HAL_RCC_ClockConfig+0x264>)
 8002d58:	f023 03f0 	bic.w	r3, r3, #240	@ 0xf0
 8002d5c:	6093      	str	r3, [r2, #8]
 8002d5e:	4b2f      	ldr	r3, [pc, #188]	@ (8002e1c <HAL_RCC_ClockConfig+0x260>)
 8002d60:	681b      	ldr	r3, [r3, #0]
 8002d62:	f003 030f 	and.w	r3, r3, #15
 8002d66:	683a      	ldr	r2, [r7, #0]
 8002d68:	429a      	cmp	r2, r3
 8002d6a:	d21d      	bcs.n	8002da8 <HAL_RCC_ClockConfig+0x1ec>
 8002d6c:	4b2b      	ldr	r3, [pc, #172]	@ (8002e1c <HAL_RCC_ClockConfig+0x260>)
 8002d6e:	681b      	ldr	r3, [r3, #0]
 8002d70:	f023 020f 	bic.w	r2, r3, #15
 8002d74:	4929      	ldr	r1, [pc, #164]	@ (8002e1c <HAL_RCC_ClockConfig+0x260>)
 8002d76:	683b      	ldr	r3, [r7, #0]
 8002d78:	4313      	orrs	r3, r2
 8002d7a:	600b      	str	r3, [r1, #0]
 8002d7c:	f7fe fc46 	bl	800160c <HAL_GetTick>
 8002d80:	60f8      	str	r0, [r7, #12]
 8002d82:	e00a      	b.n	8002d9a <HAL_RCC_ClockConfig+0x1de>
 8002d84:	f7fe fc42 	bl	800160c <HAL_GetTick>
 8002d88:	4602      	mov	r2, r0
 8002d8a:	68fb      	ldr	r3, [r7, #12]
 8002d8c:	1ad3      	subs	r3, r2, r3
 8002d8e:	f241 3288 	movw	r2, #5000	@ 0x1388
 8002d92:	4293      	cmp	r3, r2
 8002d94:	d901      	bls.n	8002d9a <HAL_RCC_ClockConfig+0x1de>
 8002d96:	2303      	movs	r3, #3
 8002d98:	e03b      	b.n	8002e12 <HAL_RCC_ClockConfig+0x256>
 8002d9a:	4b20      	ldr	r3, [pc, #128]	@ (8002e1c <HAL_RCC_ClockConfig+0x260>)
 8002d9c:	681b      	ldr	r3, [r3, #0]
 8002d9e:	f003 030f 	and.w	r3, r3, #15
 8002da2:	683a      	ldr	r2, [r7, #0]
 8002da4:	429a      	cmp	r2, r3
 8002da6:	d1ed      	bne.n	8002d84 <HAL_RCC_ClockConfig+0x1c8>
 8002da8:	687b      	ldr	r3, [r7, #4]
 8002daa:	681b      	ldr	r3, [r3, #0]
 8002dac:	f003 0304 	and.w	r3, r3, #4
 8002db0:	2b00      	cmp	r3, #0
 8002db2:	d008      	beq.n	8002dc6 <HAL_RCC_ClockConfig+0x20a>
 8002db4:	4b1a      	ldr	r3, [pc, #104]	@ (8002e20 <HAL_RCC_ClockConfig+0x264>)
 8002db6:	689b      	ldr	r3, [r3, #8]
 8002db8:	f423 62e0 	bic.w	r2, r3, #1792	@ 0x700
 8002dbc:	687b      	ldr	r3, [r7, #4]
 8002dbe:	68db      	ldr	r3, [r3, #12]
 8002dc0:	4917      	ldr	r1, [pc, #92]	@ (8002e20 <HAL_RCC_ClockConfig+0x264>)
 8002dc2:	4313      	orrs	r3, r2
 8002dc4:	608b      	str	r3, [r1, #8]
 8002dc6:	687b      	ldr	r3, [r7, #4]
 8002dc8:	681b      	ldr	r3, [r3, #0]
 8002dca:	f003 0308 	and.w	r3, r3, #8
 8002dce:	2b00      	cmp	r3, #0
 8002dd0:	d009      	beq.n	8002de6 <HAL_RCC_ClockConfig+0x22a>
 8002dd2:	4b13      	ldr	r3, [pc, #76]	@ (8002e20 <HAL_RCC_ClockConfig+0x264>)
 8002dd4:	689b      	ldr	r3, [r3, #8]
 8002dd6:	f423 5260 	bic.w	r2, r3, #14336	@ 0x3800
 8002dda:	687b      	ldr	r3, [r7, #4]
 8002ddc:	691b      	ldr	r3, [r3, #16]
 8002dde:	00db      	lsls	r3, r3, #3
 8002de0:	490f      	ldr	r1, [pc, #60]	@ (8002e20 <HAL_RCC_ClockConfig+0x264>)
 8002de2:	4313      	orrs	r3, r2
 8002de4:	608b      	str	r3, [r1, #8]
 8002de6:	f000 f825 	bl	8002e34 <HAL_RCC_GetSysClockFreq>
 8002dea:	4602      	mov	r2, r0
 8002dec:	4b0c      	ldr	r3, [pc, #48]	@ (8002e20 <HAL_RCC_ClockConfig+0x264>)
 8002dee:	689b      	ldr	r3, [r3, #8]
 8002df0:	091b      	lsrs	r3, r3, #4
 8002df2:	f003 030f 	and.w	r3, r3, #15
 8002df6:	490c      	ldr	r1, [pc, #48]	@ (8002e28 <HAL_RCC_ClockConfig+0x26c>)
 8002df8:	5ccb      	ldrb	r3, [r1, r3]
 8002dfa:	f003 031f 	and.w	r3, r3, #31
 8002dfe:	fa22 f303 	lsr.w	r3, r2, r3
 8002e02:	4a0a      	ldr	r2, [pc, #40]	@ (8002e2c <HAL_RCC_ClockConfig+0x270>)
 8002e04:	6013      	str	r3, [r2, #0]
 8002e06:	4b0a      	ldr	r3, [pc, #40]	@ (8002e30 <HAL_RCC_ClockConfig+0x274>)
 8002e08:	681b      	ldr	r3, [r3, #0]
 8002e0a:	4618      	mov	r0, r3
 8002e0c:	f7fe fbb2 	bl	8001574 <HAL_InitTick>
 8002e10:	4603      	mov	r3, r0
 8002e12:	4618      	mov	r0, r3
 8002e14:	3718      	adds	r7, #24
 8002e16:	46bd      	mov	sp, r7
 8002e18:	bd80      	pop	{r7, pc}
 8002e1a:	bf00      	nop
 8002e1c:	40022000 	.word	0x40022000
 8002e20:	40021000 	.word	0x40021000
 8002e24:	04c4b400 	.word	0x04c4b400
 8002e28:	08004b94 	.word	0x08004b94
 8002e2c:	20000044 	.word	0x20000044
 8002e30:	20000048 	.word	0x20000048

08002e34 <HAL_RCC_GetSysClockFreq>:
 8002e34:	b480      	push	{r7}
 8002e36:	b087      	sub	sp, #28
 8002e38:	af00      	add	r7, sp, #0
 8002e3a:	4b2c      	ldr	r3, [pc, #176]	@ (8002eec <HAL_RCC_GetSysClockFreq+0xb8>)
 8002e3c:	689b      	ldr	r3, [r3, #8]
 8002e3e:	f003 030c 	and.w	r3, r3, #12
 8002e42:	2b04      	cmp	r3, #4
 8002e44:	d102      	bne.n	8002e4c <HAL_RCC_GetSysClockFreq+0x18>
 8002e46:	4b2a      	ldr	r3, [pc, #168]	@ (8002ef0 <HAL_RCC_GetSysClockFreq+0xbc>)
 8002e48:	613b      	str	r3, [r7, #16]
 8002e4a:	e047      	b.n	8002edc <HAL_RCC_GetSysClockFreq+0xa8>
 8002e4c:	4b27      	ldr	r3, [pc, #156]	@ (8002eec <HAL_RCC_GetSysClockFreq+0xb8>)
 8002e4e:	689b      	ldr	r3, [r3, #8]
 8002e50:	f003 030c 	and.w	r3, r3, #12
 8002e54:	2b08      	cmp	r3, #8
 8002e56:	d102      	bne.n	8002e5e <HAL_RCC_GetSysClockFreq+0x2a>
 8002e58:	4b26      	ldr	r3, [pc, #152]	@ (8002ef4 <HAL_RCC_GetSysClockFreq+0xc0>)
 8002e5a:	613b      	str	r3, [r7, #16]
 8002e5c:	e03e      	b.n	8002edc <HAL_RCC_GetSysClockFreq+0xa8>
 8002e5e:	4b23      	ldr	r3, [pc, #140]	@ (8002eec <HAL_RCC_GetSysClockFreq+0xb8>)
 8002e60:	689b      	ldr	r3, [r3, #8]
 8002e62:	f003 030c 	and.w	r3, r3, #12
 8002e66:	2b0c      	cmp	r3, #12
 8002e68:	d136      	bne.n	8002ed8 <HAL_RCC_GetSysClockFreq+0xa4>
 8002e6a:	4b20      	ldr	r3, [pc, #128]	@ (8002eec <HAL_RCC_GetSysClockFreq+0xb8>)
 8002e6c:	68db      	ldr	r3, [r3, #12]
 8002e6e:	f003 0303 	and.w	r3, r3, #3
 8002e72:	60fb      	str	r3, [r7, #12]
 8002e74:	4b1d      	ldr	r3, [pc, #116]	@ (8002eec <HAL_RCC_GetSysClockFreq+0xb8>)
 8002e76:	68db      	ldr	r3, [r3, #12]
 8002e78:	091b      	lsrs	r3, r3, #4
 8002e7a:	f003 030f 	and.w	r3, r3, #15
 8002e7e:	3301      	adds	r3, #1
 8002e80:	60bb      	str	r3, [r7, #8]
 8002e82:	68fb      	ldr	r3, [r7, #12]
 8002e84:	2b03      	cmp	r3, #3
 8002e86:	d10c      	bne.n	8002ea2 <HAL_RCC_GetSysClockFreq+0x6e>
 8002e88:	4a1a      	ldr	r2, [pc, #104]	@ (8002ef4 <HAL_RCC_GetSysClockFreq+0xc0>)
 8002e8a:	68bb      	ldr	r3, [r7, #8]
 8002e8c:	fbb2 f3f3 	udiv	r3, r2, r3
 8002e90:	4a16      	ldr	r2, [pc, #88]	@ (8002eec <HAL_RCC_GetSysClockFreq+0xb8>)
 8002e92:	68d2      	ldr	r2, [r2, #12]
 8002e94:	0a12      	lsrs	r2, r2, #8
 8002e96:	f002 027f 	and.w	r2, r2, #127	@ 0x7f
 8002e9a:	fb02 f303 	mul.w	r3, r2, r3
 8002e9e:	617b      	str	r3, [r7, #20]
 8002ea0:	e00c      	b.n	8002ebc <HAL_RCC_GetSysClockFreq+0x88>
 8002ea2:	4a13      	ldr	r2, [pc, #76]	@ (8002ef0 <HAL_RCC_GetSysClockFreq+0xbc>)
 8002ea4:	68bb      	ldr	r3, [r7, #8]
 8002ea6:	fbb2 f3f3 	udiv	r3, r2, r3
 8002eaa:	4a10      	ldr	r2, [pc, #64]	@ (8002eec <HAL_RCC_GetSysClockFreq+0xb8>)
 8002eac:	68d2      	ldr	r2, [r2, #12]
 8002eae:	0a12      	lsrs	r2, r2, #8
 8002eb0:	f002 027f 	and.w	r2, r2, #127	@ 0x7f
 8002eb4:	fb02 f303 	mul.w	r3, r2, r3
 8002eb8:	617b      	str	r3, [r7, #20]
 8002eba:	bf00      	nop
 8002ebc:	4b0b      	ldr	r3, [pc, #44]	@ (8002eec <HAL_RCC_GetSysClockFreq+0xb8>)
 8002ebe:	68db      	ldr	r3, [r3, #12]
 8002ec0:	0e5b      	lsrs	r3, r3, #25
 8002ec2:	f003 0303 	and.w	r3, r3, #3
 8002ec6:	3301      	adds	r3, #1
 8002ec8:	005b      	lsls	r3, r3, #1
 8002eca:	607b      	str	r3, [r7, #4]
 8002ecc:	697a      	ldr	r2, [r7, #20]
 8002ece:	687b      	ldr	r3, [r7, #4]
 8002ed0:	fbb2 f3f3 	udiv	r3, r2, r3
 8002ed4:	613b      	str	r3, [r7, #16]
 8002ed6:	e001      	b.n	8002edc <HAL_RCC_GetSysClockFreq+0xa8>
 8002ed8:	2300      	movs	r3, #0
 8002eda:	613b      	str	r3, [r7, #16]
 8002edc:	693b      	ldr	r3, [r7, #16]
 8002ede:	4618      	mov	r0, r3
 8002ee0:	371c      	adds	r7, #28
 8002ee2:	46bd      	mov	sp, r7
 8002ee4:	f85d 7b04 	ldr.w	r7, [sp], #4
 8002ee8:	4770      	bx	lr
 8002eea:	bf00      	nop
 8002eec:	40021000 	.word	0x40021000
 8002ef0:	00f42400 	.word	0x00f42400
 8002ef4:	016e3600 	.word	0x016e3600

08002ef8 <HAL_RCC_GetHCLKFreq>:
 8002ef8:	b480      	push	{r7}
 8002efa:	af00      	add	r7, sp, #0
 8002efc:	4b03      	ldr	r3, [pc, #12]	@ (8002f0c <HAL_RCC_GetHCLKFreq+0x14>)
 8002efe:	681b      	ldr	r3, [r3, #0]
 8002f00:	4618      	mov	r0, r3
 8002f02:	46bd      	mov	sp, r7
 8002f04:	f85d 7b04 	ldr.w	r7, [sp], #4
 8002f08:	4770      	bx	lr
 8002f0a:	bf00      	nop
 8002f0c:	20000044 	.word	0x20000044

08002f10 <HAL_RCC_GetPCLK1Freq>:
 8002f10:	b580      	push	{r7, lr}
 8002f12:	af00      	add	r7, sp, #0
 8002f14:	f7ff fff0 	bl	8002ef8 <HAL_RCC_GetHCLKFreq>
 8002f18:	4602      	mov	r2, r0
 8002f1a:	4b06      	ldr	r3, [pc, #24]	@ (8002f34 <HAL_RCC_GetPCLK1Freq+0x24>)
 8002f1c:	689b      	ldr	r3, [r3, #8]
 8002f1e:	0a1b      	lsrs	r3, r3, #8
 8002f20:	f003 0307 	and.w	r3, r3, #7
 8002f24:	4904      	ldr	r1, [pc, #16]	@ (8002f38 <HAL_RCC_GetPCLK1Freq+0x28>)
 8002f26:	5ccb      	ldrb	r3, [r1, r3]
 8002f28:	f003 031f 	and.w	r3, r3, #31
 8002f2c:	fa22 f303 	lsr.w	r3, r2, r3
 8002f30:	4618      	mov	r0, r3
 8002f32:	bd80      	pop	{r7, pc}
 8002f34:	40021000 	.word	0x40021000
 8002f38:	08004ba4 	.word	0x08004ba4

08002f3c <HAL_RCC_GetPCLK2Freq>:
 8002f3c:	b580      	push	{r7, lr}
 8002f3e:	af00      	add	r7, sp, #0
 8002f40:	f7ff ffda 	bl	8002ef8 <HAL_RCC_GetHCLKFreq>
 8002f44:	4602      	mov	r2, r0
 8002f46:	4b06      	ldr	r3, [pc, #24]	@ (8002f60 <HAL_RCC_GetPCLK2Freq+0x24>)
 8002f48:	689b      	ldr	r3, [r3, #8]
 8002f4a:	0adb      	lsrs	r3, r3, #11
 8002f4c:	f003 0307 	and.w	r3, r3, #7
 8002f50:	4904      	ldr	r1, [pc, #16]	@ (8002f64 <HAL_RCC_GetPCLK2Freq+0x28>)
 8002f52:	5ccb      	ldrb	r3, [r1, r3]
 8002f54:	f003 031f 	and.w	r3, r3, #31
 8002f58:	fa22 f303 	lsr.w	r3, r2, r3
 8002f5c:	4618      	mov	r0, r3
 8002f5e:	bd80      	pop	{r7, pc}
 8002f60:	40021000 	.word	0x40021000
 8002f64:	08004ba4 	.word	0x08004ba4

08002f68 <RCC_GetSysClockFreqFromPLLSource>:
 8002f68:	b480      	push	{r7}
 8002f6a:	b087      	sub	sp, #28
 8002f6c:	af00      	add	r7, sp, #0
 8002f6e:	4b1e      	ldr	r3, [pc, #120]	@ (8002fe8 <RCC_GetSysClockFreqFromPLLSource+0x80>)
 8002f70:	68db      	ldr	r3, [r3, #12]
 8002f72:	f003 0303 	and.w	r3, r3, #3
 8002f76:	613b      	str	r3, [r7, #16]
 8002f78:	4b1b      	ldr	r3, [pc, #108]	@ (8002fe8 <RCC_GetSysClockFreqFromPLLSource+0x80>)
 8002f7a:	68db      	ldr	r3, [r3, #12]
 8002f7c:	091b      	lsrs	r3, r3, #4
 8002f7e:	f003 030f 	and.w	r3, r3, #15
 8002f82:	3301      	adds	r3, #1
 8002f84:	60fb      	str	r3, [r7, #12]
 8002f86:	693b      	ldr	r3, [r7, #16]
 8002f88:	2b03      	cmp	r3, #3
 8002f8a:	d10c      	bne.n	8002fa6 <RCC_GetSysClockFreqFromPLLSource+0x3e>
 8002f8c:	4a17      	ldr	r2, [pc, #92]	@ (8002fec <RCC_GetSysClockFreqFromPLLSource+0x84>)
 8002f8e:	68fb      	ldr	r3, [r7, #12]
 8002f90:	fbb2 f3f3 	udiv	r3, r2, r3
 8002f94:	4a14      	ldr	r2, [pc, #80]	@ (8002fe8 <RCC_GetSysClockFreqFromPLLSource+0x80>)
 8002f96:	68d2      	ldr	r2, [r2, #12]
 8002f98:	0a12      	lsrs	r2, r2, #8
 8002f9a:	f002 027f 	and.w	r2, r2, #127	@ 0x7f
 8002f9e:	fb02 f303 	mul.w	r3, r2, r3
 8002fa2:	617b      	str	r3, [r7, #20]
 8002fa4:	e00c      	b.n	8002fc0 <RCC_GetSysClockFreqFromPLLSource+0x58>
 8002fa6:	4a12      	ldr	r2, [pc, #72]	@ (8002ff0 <RCC_GetSysClockFreqFromPLLSource+0x88>)
 8002fa8:	68fb      	ldr	r3, [r7, #12]
 8002faa:	fbb2 f3f3 	udiv	r3, r2, r3
 8002fae:	4a0e      	ldr	r2, [pc, #56]	@ (8002fe8 <RCC_GetSysClockFreqFromPLLSource+0x80>)
 8002fb0:	68d2      	ldr	r2, [r2, #12]
 8002fb2:	0a12      	lsrs	r2, r2, #8
 8002fb4:	f002 027f 	and.w	r2, r2, #127	@ 0x7f
 8002fb8:	fb02 f303 	mul.w	r3, r2, r3
 8002fbc:	617b      	str	r3, [r7, #20]
 8002fbe:	bf00      	nop
 8002fc0:	4b09      	ldr	r3, [pc, #36]	@ (8002fe8 <RCC_GetSysClockFreqFromPLLSource+0x80>)
 8002fc2:	68db      	ldr	r3, [r3, #12]
 8002fc4:	0e5b      	lsrs	r3, r3, #25
 8002fc6:	f003 0303 	and.w	r3, r3, #3
 8002fca:	3301      	adds	r3, #1
 8002fcc:	005b      	lsls	r3, r3, #1
 8002fce:	60bb      	str	r3, [r7, #8]
 8002fd0:	697a      	ldr	r2, [r7, #20]
 8002fd2:	68bb      	ldr	r3, [r7, #8]
 8002fd4:	fbb2 f3f3 	udiv	r3, r2, r3
 8002fd8:	607b      	str	r3, [r7, #4]
 8002fda:	687b      	ldr	r3, [r7, #4]
 8002fdc:	4618      	mov	r0, r3
 8002fde:	371c      	adds	r7, #28
 8002fe0:	46bd      	mov	sp, r7
 8002fe2:	f85d 7b04 	ldr.w	r7, [sp], #4
 8002fe6:	4770      	bx	lr
 8002fe8:	40021000 	.word	0x40021000
 8002fec:	016e3600 	.word	0x016e3600
 8002ff0:	00f42400 	.word	0x00f42400

08002ff4 <HAL_RCCEx_PeriphCLKConfig>:
 8002ff4:	b580      	push	{r7, lr}
 8002ff6:	b086      	sub	sp, #24
 8002ff8:	af00      	add	r7, sp, #0
 8002ffa:	6078      	str	r0, [r7, #4]
 8002ffc:	2300      	movs	r3, #0
 8002ffe:	74fb      	strb	r3, [r7, #19]
 8003000:	2300      	movs	r3, #0
 8003002:	74bb      	strb	r3, [r7, #18]
 8003004:	687b      	ldr	r3, [r7, #4]
 8003006:	681b      	ldr	r3, [r3, #0]
 8003008:	f403 2300 	and.w	r3, r3, #524288	@ 0x80000
 800300c:	2b00      	cmp	r3, #0
 800300e:	f000 8098 	beq.w	8003142 <HAL_RCCEx_PeriphCLKConfig+0x14e>
 8003012:	2300      	movs	r3, #0
 8003014:	747b      	strb	r3, [r7, #17]
 8003016:	4b43      	ldr	r3, [pc, #268]	@ (8003124 <HAL_RCCEx_PeriphCLKConfig+0x130>)
 8003018:	6d9b      	ldr	r3, [r3, #88]	@ 0x58
 800301a:	f003 5380 	and.w	r3, r3, #268435456	@ 0x10000000
 800301e:	2b00      	cmp	r3, #0
 8003020:	d10d      	bne.n	800303e <HAL_RCCEx_PeriphCLKConfig+0x4a>
 8003022:	4b40      	ldr	r3, [pc, #256]	@ (8003124 <HAL_RCCEx_PeriphCLKConfig+0x130>)
 8003024:	6d9b      	ldr	r3, [r3, #88]	@ 0x58
 8003026:	4a3f      	ldr	r2, [pc, #252]	@ (8003124 <HAL_RCCEx_PeriphCLKConfig+0x130>)
 8003028:	f043 5380 	orr.w	r3, r3, #268435456	@ 0x10000000
 800302c:	6593      	str	r3, [r2, #88]	@ 0x58
 800302e:	4b3d      	ldr	r3, [pc, #244]	@ (8003124 <HAL_RCCEx_PeriphCLKConfig+0x130>)
 8003030:	6d9b      	ldr	r3, [r3, #88]	@ 0x58
 8003032:	f003 5380 	and.w	r3, r3, #268435456	@ 0x10000000
 8003036:	60bb      	str	r3, [r7, #8]
 8003038:	68bb      	ldr	r3, [r7, #8]
 800303a:	2301      	movs	r3, #1
 800303c:	747b      	strb	r3, [r7, #17]
 800303e:	4b3a      	ldr	r3, [pc, #232]	@ (8003128 <HAL_RCCEx_PeriphCLKConfig+0x134>)
 8003040:	681b      	ldr	r3, [r3, #0]
 8003042:	4a39      	ldr	r2, [pc, #228]	@ (8003128 <HAL_RCCEx_PeriphCLKConfig+0x134>)
 8003044:	f443 7380 	orr.w	r3, r3, #256	@ 0x100
 8003048:	6013      	str	r3, [r2, #0]
 800304a:	f7fe fadf 	bl	800160c <HAL_GetTick>
 800304e:	60f8      	str	r0, [r7, #12]
 8003050:	e009      	b.n	8003066 <HAL_RCCEx_PeriphCLKConfig+0x72>
 8003052:	f7fe fadb 	bl	800160c <HAL_GetTick>
 8003056:	4602      	mov	r2, r0
 8003058:	68fb      	ldr	r3, [r7, #12]
 800305a:	1ad3      	subs	r3, r2, r3
 800305c:	2b02      	cmp	r3, #2
 800305e:	d902      	bls.n	8003066 <HAL_RCCEx_PeriphCLKConfig+0x72>
 8003060:	2303      	movs	r3, #3
 8003062:	74fb      	strb	r3, [r7, #19]
 8003064:	e005      	b.n	8003072 <HAL_RCCEx_PeriphCLKConfig+0x7e>
 8003066:	4b30      	ldr	r3, [pc, #192]	@ (8003128 <HAL_RCCEx_PeriphCLKConfig+0x134>)
 8003068:	681b      	ldr	r3, [r3, #0]
 800306a:	f403 7380 	and.w	r3, r3, #256	@ 0x100
 800306e:	2b00      	cmp	r3, #0
 8003070:	d0ef      	beq.n	8003052 <HAL_RCCEx_PeriphCLKConfig+0x5e>
 8003072:	7cfb      	ldrb	r3, [r7, #19]
 8003074:	2b00      	cmp	r3, #0
 8003076:	d159      	bne.n	800312c <HAL_RCCEx_PeriphCLKConfig+0x138>
 8003078:	4b2a      	ldr	r3, [pc, #168]	@ (8003124 <HAL_RCCEx_PeriphCLKConfig+0x130>)
 800307a:	f8d3 3090 	ldr.w	r3, [r3, #144]	@ 0x90
 800307e:	f403 7340 	and.w	r3, r3, #768	@ 0x300
 8003082:	617b      	str	r3, [r7, #20]
 8003084:	697b      	ldr	r3, [r7, #20]
 8003086:	2b00      	cmp	r3, #0
 8003088:	d01e      	beq.n	80030c8 <HAL_RCCEx_PeriphCLKConfig+0xd4>
 800308a:	687b      	ldr	r3, [r7, #4]
 800308c:	6d1b      	ldr	r3, [r3, #80]	@ 0x50
 800308e:	697a      	ldr	r2, [r7, #20]
 8003090:	429a      	cmp	r2, r3
 8003092:	d019      	beq.n	80030c8 <HAL_RCCEx_PeriphCLKConfig+0xd4>
 8003094:	4b23      	ldr	r3, [pc, #140]	@ (8003124 <HAL_RCCEx_PeriphCLKConfig+0x130>)
 8003096:	f8d3 3090 	ldr.w	r3, [r3, #144]	@ 0x90
 800309a:	f423 7340 	bic.w	r3, r3, #768	@ 0x300
 800309e:	617b      	str	r3, [r7, #20]
 80030a0:	4b20      	ldr	r3, [pc, #128]	@ (8003124 <HAL_RCCEx_PeriphCLKConfig+0x130>)
 80030a2:	f8d3 3090 	ldr.w	r3, [r3, #144]	@ 0x90
 80030a6:	4a1f      	ldr	r2, [pc, #124]	@ (8003124 <HAL_RCCEx_PeriphCLKConfig+0x130>)
 80030a8:	f443 3380 	orr.w	r3, r3, #65536	@ 0x10000
 80030ac:	f8c2 3090 	str.w	r3, [r2, #144]	@ 0x90
 80030b0:	4b1c      	ldr	r3, [pc, #112]	@ (8003124 <HAL_RCCEx_PeriphCLKConfig+0x130>)
 80030b2:	f8d3 3090 	ldr.w	r3, [r3, #144]	@ 0x90
 80030b6:	4a1b      	ldr	r2, [pc, #108]	@ (8003124 <HAL_RCCEx_PeriphCLKConfig+0x130>)
 80030b8:	f423 3380 	bic.w	r3, r3, #65536	@ 0x10000
 80030bc:	f8c2 3090 	str.w	r3, [r2, #144]	@ 0x90
 80030c0:	4a18      	ldr	r2, [pc, #96]	@ (8003124 <HAL_RCCEx_PeriphCLKConfig+0x130>)
 80030c2:	697b      	ldr	r3, [r7, #20]
 80030c4:	f8c2 3090 	str.w	r3, [r2, #144]	@ 0x90
 80030c8:	697b      	ldr	r3, [r7, #20]
 80030ca:	f003 0301 	and.w	r3, r3, #1
 80030ce:	2b00      	cmp	r3, #0
 80030d0:	d016      	beq.n	8003100 <HAL_RCCEx_PeriphCLKConfig+0x10c>
 80030d2:	f7fe fa9b 	bl	800160c <HAL_GetTick>
 80030d6:	60f8      	str	r0, [r7, #12]
 80030d8:	e00b      	b.n	80030f2 <HAL_RCCEx_PeriphCLKConfig+0xfe>
 80030da:	f7fe fa97 	bl	800160c <HAL_GetTick>
 80030de:	4602      	mov	r2, r0
 80030e0:	68fb      	ldr	r3, [r7, #12]
 80030e2:	1ad3      	subs	r3, r2, r3
 80030e4:	f241 3288 	movw	r2, #5000	@ 0x1388
 80030e8:	4293      	cmp	r3, r2
 80030ea:	d902      	bls.n	80030f2 <HAL_RCCEx_PeriphCLKConfig+0xfe>
 80030ec:	2303      	movs	r3, #3
 80030ee:	74fb      	strb	r3, [r7, #19]
 80030f0:	e006      	b.n	8003100 <HAL_RCCEx_PeriphCLKConfig+0x10c>
 80030f2:	4b0c      	ldr	r3, [pc, #48]	@ (8003124 <HAL_RCCEx_PeriphCLKConfig+0x130>)
 80030f4:	f8d3 3090 	ldr.w	r3, [r3, #144]	@ 0x90
 80030f8:	f003 0302 	and.w	r3, r3, #2
 80030fc:	2b00      	cmp	r3, #0
 80030fe:	d0ec      	beq.n	80030da <HAL_RCCEx_PeriphCLKConfig+0xe6>
 8003100:	7cfb      	ldrb	r3, [r7, #19]
 8003102:	2b00      	cmp	r3, #0
 8003104:	d10b      	bne.n	800311e <HAL_RCCEx_PeriphCLKConfig+0x12a>
 8003106:	4b07      	ldr	r3, [pc, #28]	@ (8003124 <HAL_RCCEx_PeriphCLKConfig+0x130>)
 8003108:	f8d3 3090 	ldr.w	r3, [r3, #144]	@ 0x90
 800310c:	f423 7240 	bic.w	r2, r3, #768	@ 0x300
 8003110:	687b      	ldr	r3, [r7, #4]
 8003112:	6d1b      	ldr	r3, [r3, #80]	@ 0x50
 8003114:	4903      	ldr	r1, [pc, #12]	@ (8003124 <HAL_RCCEx_PeriphCLKConfig+0x130>)
 8003116:	4313      	orrs	r3, r2
 8003118:	f8c1 3090 	str.w	r3, [r1, #144]	@ 0x90
 800311c:	e008      	b.n	8003130 <HAL_RCCEx_PeriphCLKConfig+0x13c>
 800311e:	7cfb      	ldrb	r3, [r7, #19]
 8003120:	74bb      	strb	r3, [r7, #18]
 8003122:	e005      	b.n	8003130 <HAL_RCCEx_PeriphCLKConfig+0x13c>
 8003124:	40021000 	.word	0x40021000
 8003128:	40007000 	.word	0x40007000
 800312c:	7cfb      	ldrb	r3, [r7, #19]
 800312e:	74bb      	strb	r3, [r7, #18]
 8003130:	7c7b      	ldrb	r3, [r7, #17]
 8003132:	2b01      	cmp	r3, #1
 8003134:	d105      	bne.n	8003142 <HAL_RCCEx_PeriphCLKConfig+0x14e>
 8003136:	4ba7      	ldr	r3, [pc, #668]	@ (80033d4 <HAL_RCCEx_PeriphCLKConfig+0x3e0>)
 8003138:	6d9b      	ldr	r3, [r3, #88]	@ 0x58
 800313a:	4aa6      	ldr	r2, [pc, #664]	@ (80033d4 <HAL_RCCEx_PeriphCLKConfig+0x3e0>)
 800313c:	f023 5380 	bic.w	r3, r3, #268435456	@ 0x10000000
 8003140:	6593      	str	r3, [r2, #88]	@ 0x58
 8003142:	687b      	ldr	r3, [r7, #4]
 8003144:	681b      	ldr	r3, [r3, #0]
 8003146:	f003 0301 	and.w	r3, r3, #1
 800314a:	2b00      	cmp	r3, #0
 800314c:	d00a      	beq.n	8003164 <HAL_RCCEx_PeriphCLKConfig+0x170>
 800314e:	4ba1      	ldr	r3, [pc, #644]	@ (80033d4 <HAL_RCCEx_PeriphCLKConfig+0x3e0>)
 8003150:	f8d3 3088 	ldr.w	r3, [r3, #136]	@ 0x88
 8003154:	f023 0203 	bic.w	r2, r3, #3
 8003158:	687b      	ldr	r3, [r7, #4]
 800315a:	685b      	ldr	r3, [r3, #4]
 800315c:	499d      	ldr	r1, [pc, #628]	@ (80033d4 <HAL_RCCEx_PeriphCLKConfig+0x3e0>)
 800315e:	4313      	orrs	r3, r2
 8003160:	f8c1 3088 	str.w	r3, [r1, #136]	@ 0x88
 8003164:	687b      	ldr	r3, [r7, #4]
 8003166:	681b      	ldr	r3, [r3, #0]
 8003168:	f003 0302 	and.w	r3, r3, #2
 800316c:	2b00      	cmp	r3, #0
 800316e:	d00a      	beq.n	8003186 <HAL_RCCEx_PeriphCLKConfig+0x192>
 8003170:	4b98      	ldr	r3, [pc, #608]	@ (80033d4 <HAL_RCCEx_PeriphCLKConfig+0x3e0>)
 8003172:	f8d3 3088 	ldr.w	r3, [r3, #136]	@ 0x88
 8003176:	f023 020c 	bic.w	r2, r3, #12
 800317a:	687b      	ldr	r3, [r7, #4]
 800317c:	689b      	ldr	r3, [r3, #8]
 800317e:	4995      	ldr	r1, [pc, #596]	@ (80033d4 <HAL_RCCEx_PeriphCLKConfig+0x3e0>)
 8003180:	4313      	orrs	r3, r2
 8003182:	f8c1 3088 	str.w	r3, [r1, #136]	@ 0x88
 8003186:	687b      	ldr	r3, [r7, #4]
 8003188:	681b      	ldr	r3, [r3, #0]
 800318a:	f003 0304 	and.w	r3, r3, #4
 800318e:	2b00      	cmp	r3, #0
 8003190:	d00a      	beq.n	80031a8 <HAL_RCCEx_PeriphCLKConfig+0x1b4>
 8003192:	4b90      	ldr	r3, [pc, #576]	@ (80033d4 <HAL_RCCEx_PeriphCLKConfig+0x3e0>)
 8003194:	f8d3 3088 	ldr.w	r3, [r3, #136]	@ 0x88
 8003198:	f023 0230 	bic.w	r2, r3, #48	@ 0x30
 800319c:	687b      	ldr	r3, [r7, #4]
 800319e:	68db      	ldr	r3, [r3, #12]
 80031a0:	498c      	ldr	r1, [pc, #560]	@ (80033d4 <HAL_RCCEx_PeriphCLKConfig+0x3e0>)
 80031a2:	4313      	orrs	r3, r2
 80031a4:	f8c1 3088 	str.w	r3, [r1, #136]	@ 0x88
 80031a8:	687b      	ldr	r3, [r7, #4]
 80031aa:	681b      	ldr	r3, [r3, #0]
 80031ac:	f003 0308 	and.w	r3, r3, #8
 80031b0:	2b00      	cmp	r3, #0
 80031b2:	d00a      	beq.n	80031ca <HAL_RCCEx_PeriphCLKConfig+0x1d6>
 80031b4:	4b87      	ldr	r3, [pc, #540]	@ (80033d4 <HAL_RCCEx_PeriphCLKConfig+0x3e0>)
 80031b6:	f8d3 3088 	ldr.w	r3, [r3, #136]	@ 0x88
 80031ba:	f023 02c0 	bic.w	r2, r3, #192	@ 0xc0
 80031be:	687b      	ldr	r3, [r7, #4]
 80031c0:	691b      	ldr	r3, [r3, #16]
 80031c2:	4984      	ldr	r1, [pc, #528]	@ (80033d4 <HAL_RCCEx_PeriphCLKConfig+0x3e0>)
 80031c4:	4313      	orrs	r3, r2
 80031c6:	f8c1 3088 	str.w	r3, [r1, #136]	@ 0x88
 80031ca:	687b      	ldr	r3, [r7, #4]
 80031cc:	681b      	ldr	r3, [r3, #0]
 80031ce:	f003 0310 	and.w	r3, r3, #16
 80031d2:	2b00      	cmp	r3, #0
 80031d4:	d00a      	beq.n	80031ec <HAL_RCCEx_PeriphCLKConfig+0x1f8>
 80031d6:	4b7f      	ldr	r3, [pc, #508]	@ (80033d4 <HAL_RCCEx_PeriphCLKConfig+0x3e0>)
 80031d8:	f8d3 3088 	ldr.w	r3, [r3, #136]	@ 0x88
 80031dc:	f423 7240 	bic.w	r2, r3, #768	@ 0x300
 80031e0:	687b      	ldr	r3, [r7, #4]
 80031e2:	695b      	ldr	r3, [r3, #20]
 80031e4:	497b      	ldr	r1, [pc, #492]	@ (80033d4 <HAL_RCCEx_PeriphCLKConfig+0x3e0>)
 80031e6:	4313      	orrs	r3, r2
 80031e8:	f8c1 3088 	str.w	r3, [r1, #136]	@ 0x88
 80031ec:	687b      	ldr	r3, [r7, #4]
 80031ee:	681b      	ldr	r3, [r3, #0]
 80031f0:	f003 0320 	and.w	r3, r3, #32
 80031f4:	2b00      	cmp	r3, #0
 80031f6:	d00a      	beq.n	800320e <HAL_RCCEx_PeriphCLKConfig+0x21a>
 80031f8:	4b76      	ldr	r3, [pc, #472]	@ (80033d4 <HAL_RCCEx_PeriphCLKConfig+0x3e0>)
 80031fa:	f8d3 3088 	ldr.w	r3, [r3, #136]	@ 0x88
 80031fe:	f423 6240 	bic.w	r2, r3, #3072	@ 0xc00
 8003202:	687b      	ldr	r3, [r7, #4]
 8003204:	699b      	ldr	r3, [r3, #24]
 8003206:	4973      	ldr	r1, [pc, #460]	@ (80033d4 <HAL_RCCEx_PeriphCLKConfig+0x3e0>)
 8003208:	4313      	orrs	r3, r2
 800320a:	f8c1 3088 	str.w	r3, [r1, #136]	@ 0x88
 800320e:	687b      	ldr	r3, [r7, #4]
 8003210:	681b      	ldr	r3, [r3, #0]
 8003212:	f003 0340 	and.w	r3, r3, #64	@ 0x40
 8003216:	2b00      	cmp	r3, #0
 8003218:	d00a      	beq.n	8003230 <HAL_RCCEx_PeriphCLKConfig+0x23c>
 800321a:	4b6e      	ldr	r3, [pc, #440]	@ (80033d4 <HAL_RCCEx_PeriphCLKConfig+0x3e0>)
 800321c:	f8d3 3088 	ldr.w	r3, [r3, #136]	@ 0x88
 8003220:	f423 5240 	bic.w	r2, r3, #12288	@ 0x3000
 8003224:	687b      	ldr	r3, [r7, #4]
 8003226:	69db      	ldr	r3, [r3, #28]
 8003228:	496a      	ldr	r1, [pc, #424]	@ (80033d4 <HAL_RCCEx_PeriphCLKConfig+0x3e0>)
 800322a:	4313      	orrs	r3, r2
 800322c:	f8c1 3088 	str.w	r3, [r1, #136]	@ 0x88
 8003230:	687b      	ldr	r3, [r7, #4]
 8003232:	681b      	ldr	r3, [r3, #0]
 8003234:	f003 0380 	and.w	r3, r3, #128	@ 0x80
 8003238:	2b00      	cmp	r3, #0
 800323a:	d00a      	beq.n	8003252 <HAL_RCCEx_PeriphCLKConfig+0x25e>
 800323c:	4b65      	ldr	r3, [pc, #404]	@ (80033d4 <HAL_RCCEx_PeriphCLKConfig+0x3e0>)
 800323e:	f8d3 3088 	ldr.w	r3, [r3, #136]	@ 0x88
 8003242:	f423 4240 	bic.w	r2, r3, #49152	@ 0xc000
 8003246:	687b      	ldr	r3, [r7, #4]
 8003248:	6a1b      	ldr	r3, [r3, #32]
 800324a:	4962      	ldr	r1, [pc, #392]	@ (80033d4 <HAL_RCCEx_PeriphCLKConfig+0x3e0>)
 800324c:	4313      	orrs	r3, r2
 800324e:	f8c1 3088 	str.w	r3, [r1, #136]	@ 0x88
 8003252:	687b      	ldr	r3, [r7, #4]
 8003254:	681b      	ldr	r3, [r3, #0]
 8003256:	f403 7380 	and.w	r3, r3, #256	@ 0x100
 800325a:	2b00      	cmp	r3, #0
 800325c:	d00a      	beq.n	8003274 <HAL_RCCEx_PeriphCLKConfig+0x280>
 800325e:	4b5d      	ldr	r3, [pc, #372]	@ (80033d4 <HAL_RCCEx_PeriphCLKConfig+0x3e0>)
 8003260:	f8d3 3088 	ldr.w	r3, [r3, #136]	@ 0x88
 8003264:	f423 3240 	bic.w	r2, r3, #196608	@ 0x30000
 8003268:	687b      	ldr	r3, [r7, #4]
 800326a:	6a5b      	ldr	r3, [r3, #36]	@ 0x24
 800326c:	4959      	ldr	r1, [pc, #356]	@ (80033d4 <HAL_RCCEx_PeriphCLKConfig+0x3e0>)
 800326e:	4313      	orrs	r3, r2
 8003270:	f8c1 3088 	str.w	r3, [r1, #136]	@ 0x88
 8003274:	687b      	ldr	r3, [r7, #4]
 8003276:	681b      	ldr	r3, [r3, #0]
 8003278:	f403 3300 	and.w	r3, r3, #131072	@ 0x20000
 800327c:	2b00      	cmp	r3, #0
 800327e:	d00a      	beq.n	8003296 <HAL_RCCEx_PeriphCLKConfig+0x2a2>
 8003280:	4b54      	ldr	r3, [pc, #336]	@ (80033d4 <HAL_RCCEx_PeriphCLKConfig+0x3e0>)
 8003282:	f8d3 309c 	ldr.w	r3, [r3, #156]	@ 0x9c
 8003286:	f023 0203 	bic.w	r2, r3, #3
 800328a:	687b      	ldr	r3, [r7, #4]
 800328c:	6a9b      	ldr	r3, [r3, #40]	@ 0x28
 800328e:	4951      	ldr	r1, [pc, #324]	@ (80033d4 <HAL_RCCEx_PeriphCLKConfig+0x3e0>)
 8003290:	4313      	orrs	r3, r2
 8003292:	f8c1 309c 	str.w	r3, [r1, #156]	@ 0x9c
 8003296:	687b      	ldr	r3, [r7, #4]
 8003298:	681b      	ldr	r3, [r3, #0]
 800329a:	f403 7300 	and.w	r3, r3, #512	@ 0x200
 800329e:	2b00      	cmp	r3, #0
 80032a0:	d00a      	beq.n	80032b8 <HAL_RCCEx_PeriphCLKConfig+0x2c4>
 80032a2:	4b4c      	ldr	r3, [pc, #304]	@ (80033d4 <HAL_RCCEx_PeriphCLKConfig+0x3e0>)
 80032a4:	f8d3 3088 	ldr.w	r3, [r3, #136]	@ 0x88
 80032a8:	f423 2240 	bic.w	r2, r3, #786432	@ 0xc0000
 80032ac:	687b      	ldr	r3, [r7, #4]
 80032ae:	6adb      	ldr	r3, [r3, #44]	@ 0x2c
 80032b0:	4948      	ldr	r1, [pc, #288]	@ (80033d4 <HAL_RCCEx_PeriphCLKConfig+0x3e0>)
 80032b2:	4313      	orrs	r3, r2
 80032b4:	f8c1 3088 	str.w	r3, [r1, #136]	@ 0x88
 80032b8:	687b      	ldr	r3, [r7, #4]
 80032ba:	681b      	ldr	r3, [r3, #0]
 80032bc:	f403 6380 	and.w	r3, r3, #1024	@ 0x400
 80032c0:	2b00      	cmp	r3, #0
 80032c2:	d015      	beq.n	80032f0 <HAL_RCCEx_PeriphCLKConfig+0x2fc>
 80032c4:	4b43      	ldr	r3, [pc, #268]	@ (80033d4 <HAL_RCCEx_PeriphCLKConfig+0x3e0>)
 80032c6:	f8d3 3088 	ldr.w	r3, [r3, #136]	@ 0x88
 80032ca:	f423 1240 	bic.w	r2, r3, #3145728	@ 0x300000
 80032ce:	687b      	ldr	r3, [r7, #4]
 80032d0:	6b1b      	ldr	r3, [r3, #48]	@ 0x30
 80032d2:	4940      	ldr	r1, [pc, #256]	@ (80033d4 <HAL_RCCEx_PeriphCLKConfig+0x3e0>)
 80032d4:	4313      	orrs	r3, r2
 80032d6:	f8c1 3088 	str.w	r3, [r1, #136]	@ 0x88
 80032da:	687b      	ldr	r3, [r7, #4]
 80032dc:	6b1b      	ldr	r3, [r3, #48]	@ 0x30
 80032de:	f5b3 1f80 	cmp.w	r3, #1048576	@ 0x100000
 80032e2:	d105      	bne.n	80032f0 <HAL_RCCEx_PeriphCLKConfig+0x2fc>
 80032e4:	4b3b      	ldr	r3, [pc, #236]	@ (80033d4 <HAL_RCCEx_PeriphCLKConfig+0x3e0>)
 80032e6:	68db      	ldr	r3, [r3, #12]
 80032e8:	4a3a      	ldr	r2, [pc, #232]	@ (80033d4 <HAL_RCCEx_PeriphCLKConfig+0x3e0>)
 80032ea:	f443 1380 	orr.w	r3, r3, #1048576	@ 0x100000
 80032ee:	60d3      	str	r3, [r2, #12]
 80032f0:	687b      	ldr	r3, [r7, #4]
 80032f2:	681b      	ldr	r3, [r3, #0]
 80032f4:	f403 6300 	and.w	r3, r3, #2048	@ 0x800
 80032f8:	2b00      	cmp	r3, #0
 80032fa:	d015      	beq.n	8003328 <HAL_RCCEx_PeriphCLKConfig+0x334>
 80032fc:	4b35      	ldr	r3, [pc, #212]	@ (80033d4 <HAL_RCCEx_PeriphCLKConfig+0x3e0>)
 80032fe:	f8d3 3088 	ldr.w	r3, [r3, #136]	@ 0x88
 8003302:	f423 0240 	bic.w	r2, r3, #12582912	@ 0xc00000
 8003306:	687b      	ldr	r3, [r7, #4]
 8003308:	6b5b      	ldr	r3, [r3, #52]	@ 0x34
 800330a:	4932      	ldr	r1, [pc, #200]	@ (80033d4 <HAL_RCCEx_PeriphCLKConfig+0x3e0>)
 800330c:	4313      	orrs	r3, r2
 800330e:	f8c1 3088 	str.w	r3, [r1, #136]	@ 0x88
 8003312:	687b      	ldr	r3, [r7, #4]
 8003314:	6b5b      	ldr	r3, [r3, #52]	@ 0x34
 8003316:	f5b3 0f80 	cmp.w	r3, #4194304	@ 0x400000
 800331a:	d105      	bne.n	8003328 <HAL_RCCEx_PeriphCLKConfig+0x334>
 800331c:	4b2d      	ldr	r3, [pc, #180]	@ (80033d4 <HAL_RCCEx_PeriphCLKConfig+0x3e0>)
 800331e:	68db      	ldr	r3, [r3, #12]
 8003320:	4a2c      	ldr	r2, [pc, #176]	@ (80033d4 <HAL_RCCEx_PeriphCLKConfig+0x3e0>)
 8003322:	f443 1380 	orr.w	r3, r3, #1048576	@ 0x100000
 8003326:	60d3      	str	r3, [r2, #12]
 8003328:	687b      	ldr	r3, [r7, #4]
 800332a:	681b      	ldr	r3, [r3, #0]
 800332c:	f403 5380 	and.w	r3, r3, #4096	@ 0x1000
 8003330:	2b00      	cmp	r3, #0
 8003332:	d015      	beq.n	8003360 <HAL_RCCEx_PeriphCLKConfig+0x36c>
 8003334:	4b27      	ldr	r3, [pc, #156]	@ (80033d4 <HAL_RCCEx_PeriphCLKConfig+0x3e0>)
 8003336:	f8d3 3088 	ldr.w	r3, [r3, #136]	@ 0x88
 800333a:	f023 7240 	bic.w	r2, r3, #50331648	@ 0x3000000
 800333e:	687b      	ldr	r3, [r7, #4]
 8003340:	6b9b      	ldr	r3, [r3, #56]	@ 0x38
 8003342:	4924      	ldr	r1, [pc, #144]	@ (80033d4 <HAL_RCCEx_PeriphCLKConfig+0x3e0>)
 8003344:	4313      	orrs	r3, r2
 8003346:	f8c1 3088 	str.w	r3, [r1, #136]	@ 0x88
 800334a:	687b      	ldr	r3, [r7, #4]
 800334c:	6b9b      	ldr	r3, [r3, #56]	@ 0x38
 800334e:	f1b3 7f80 	cmp.w	r3, #16777216	@ 0x1000000
 8003352:	d105      	bne.n	8003360 <HAL_RCCEx_PeriphCLKConfig+0x36c>
 8003354:	4b1f      	ldr	r3, [pc, #124]	@ (80033d4 <HAL_RCCEx_PeriphCLKConfig+0x3e0>)
 8003356:	68db      	ldr	r3, [r3, #12]
 8003358:	4a1e      	ldr	r2, [pc, #120]	@ (80033d4 <HAL_RCCEx_PeriphCLKConfig+0x3e0>)
 800335a:	f443 1380 	orr.w	r3, r3, #1048576	@ 0x100000
 800335e:	60d3      	str	r3, [r2, #12]
 8003360:	687b      	ldr	r3, [r7, #4]
 8003362:	681b      	ldr	r3, [r3, #0]
 8003364:	f403 5300 	and.w	r3, r3, #8192	@ 0x2000
 8003368:	2b00      	cmp	r3, #0
 800336a:	d015      	beq.n	8003398 <HAL_RCCEx_PeriphCLKConfig+0x3a4>
 800336c:	4b19      	ldr	r3, [pc, #100]	@ (80033d4 <HAL_RCCEx_PeriphCLKConfig+0x3e0>)
 800336e:	f8d3 3088 	ldr.w	r3, [r3, #136]	@ 0x88
 8003372:	f023 6240 	bic.w	r2, r3, #201326592	@ 0xc000000
 8003376:	687b      	ldr	r3, [r7, #4]
 8003378:	6bdb      	ldr	r3, [r3, #60]	@ 0x3c
 800337a:	4916      	ldr	r1, [pc, #88]	@ (80033d4 <HAL_RCCEx_PeriphCLKConfig+0x3e0>)
 800337c:	4313      	orrs	r3, r2
 800337e:	f8c1 3088 	str.w	r3, [r1, #136]	@ 0x88
 8003382:	687b      	ldr	r3, [r7, #4]
 8003384:	6bdb      	ldr	r3, [r3, #60]	@ 0x3c
 8003386:	f1b3 6f00 	cmp.w	r3, #134217728	@ 0x8000000
 800338a:	d105      	bne.n	8003398 <HAL_RCCEx_PeriphCLKConfig+0x3a4>
 800338c:	4b11      	ldr	r3, [pc, #68]	@ (80033d4 <HAL_RCCEx_PeriphCLKConfig+0x3e0>)
 800338e:	68db      	ldr	r3, [r3, #12]
 8003390:	4a10      	ldr	r2, [pc, #64]	@ (80033d4 <HAL_RCCEx_PeriphCLKConfig+0x3e0>)
 8003392:	f443 1380 	orr.w	r3, r3, #1048576	@ 0x100000
 8003396:	60d3      	str	r3, [r2, #12]
 8003398:	687b      	ldr	r3, [r7, #4]
 800339a:	681b      	ldr	r3, [r3, #0]
 800339c:	f403 4380 	and.w	r3, r3, #16384	@ 0x4000
 80033a0:	2b00      	cmp	r3, #0
 80033a2:	d019      	beq.n	80033d8 <HAL_RCCEx_PeriphCLKConfig+0x3e4>
 80033a4:	4b0b      	ldr	r3, [pc, #44]	@ (80033d4 <HAL_RCCEx_PeriphCLKConfig+0x3e0>)
 80033a6:	f8d3 3088 	ldr.w	r3, [r3, #136]	@ 0x88
 80033aa:	f023 6240 	bic.w	r2, r3, #201326592	@ 0xc000000
 80033ae:	687b      	ldr	r3, [r7, #4]
 80033b0:	6c1b      	ldr	r3, [r3, #64]	@ 0x40
 80033b2:	4908      	ldr	r1, [pc, #32]	@ (80033d4 <HAL_RCCEx_PeriphCLKConfig+0x3e0>)
 80033b4:	4313      	orrs	r3, r2
 80033b6:	f8c1 3088 	str.w	r3, [r1, #136]	@ 0x88
 80033ba:	687b      	ldr	r3, [r7, #4]
 80033bc:	6c1b      	ldr	r3, [r3, #64]	@ 0x40
 80033be:	f1b3 6f00 	cmp.w	r3, #134217728	@ 0x8000000
 80033c2:	d109      	bne.n	80033d8 <HAL_RCCEx_PeriphCLKConfig+0x3e4>
 80033c4:	4b03      	ldr	r3, [pc, #12]	@ (80033d4 <HAL_RCCEx_PeriphCLKConfig+0x3e0>)
 80033c6:	68db      	ldr	r3, [r3, #12]
 80033c8:	4a02      	ldr	r2, [pc, #8]	@ (80033d4 <HAL_RCCEx_PeriphCLKConfig+0x3e0>)
 80033ca:	f443 1380 	orr.w	r3, r3, #1048576	@ 0x100000
 80033ce:	60d3      	str	r3, [r2, #12]
 80033d0:	e002      	b.n	80033d8 <HAL_RCCEx_PeriphCLKConfig+0x3e4>
 80033d2:	bf00      	nop
 80033d4:	40021000 	.word	0x40021000
 80033d8:	687b      	ldr	r3, [r7, #4]
 80033da:	681b      	ldr	r3, [r3, #0]
 80033dc:	f403 4300 	and.w	r3, r3, #32768	@ 0x8000
 80033e0:	2b00      	cmp	r3, #0
 80033e2:	d015      	beq.n	8003410 <HAL_RCCEx_PeriphCLKConfig+0x41c>
 80033e4:	4b29      	ldr	r3, [pc, #164]	@ (800348c <HAL_RCCEx_PeriphCLKConfig+0x498>)
 80033e6:	f8d3 3088 	ldr.w	r3, [r3, #136]	@ 0x88
 80033ea:	f023 5240 	bic.w	r2, r3, #805306368	@ 0x30000000
 80033ee:	687b      	ldr	r3, [r7, #4]
 80033f0:	6c5b      	ldr	r3, [r3, #68]	@ 0x44
 80033f2:	4926      	ldr	r1, [pc, #152]	@ (800348c <HAL_RCCEx_PeriphCLKConfig+0x498>)
 80033f4:	4313      	orrs	r3, r2
 80033f6:	f8c1 3088 	str.w	r3, [r1, #136]	@ 0x88
 80033fa:	687b      	ldr	r3, [r7, #4]
 80033fc:	6c5b      	ldr	r3, [r3, #68]	@ 0x44
 80033fe:	f1b3 5f80 	cmp.w	r3, #268435456	@ 0x10000000
 8003402:	d105      	bne.n	8003410 <HAL_RCCEx_PeriphCLKConfig+0x41c>
 8003404:	4b21      	ldr	r3, [pc, #132]	@ (800348c <HAL_RCCEx_PeriphCLKConfig+0x498>)
 8003406:	68db      	ldr	r3, [r3, #12]
 8003408:	4a20      	ldr	r2, [pc, #128]	@ (800348c <HAL_RCCEx_PeriphCLKConfig+0x498>)
 800340a:	f443 3380 	orr.w	r3, r3, #65536	@ 0x10000
 800340e:	60d3      	str	r3, [r2, #12]
 8003410:	687b      	ldr	r3, [r7, #4]
 8003412:	681b      	ldr	r3, [r3, #0]
 8003414:	f403 3380 	and.w	r3, r3, #65536	@ 0x10000
 8003418:	2b00      	cmp	r3, #0
 800341a:	d015      	beq.n	8003448 <HAL_RCCEx_PeriphCLKConfig+0x454>
 800341c:	4b1b      	ldr	r3, [pc, #108]	@ (800348c <HAL_RCCEx_PeriphCLKConfig+0x498>)
 800341e:	f8d3 3088 	ldr.w	r3, [r3, #136]	@ 0x88
 8003422:	f023 4240 	bic.w	r2, r3, #3221225472	@ 0xc0000000
 8003426:	687b      	ldr	r3, [r7, #4]
 8003428:	6c9b      	ldr	r3, [r3, #72]	@ 0x48
 800342a:	4918      	ldr	r1, [pc, #96]	@ (800348c <HAL_RCCEx_PeriphCLKConfig+0x498>)
 800342c:	4313      	orrs	r3, r2
 800342e:	f8c1 3088 	str.w	r3, [r1, #136]	@ 0x88
 8003432:	687b      	ldr	r3, [r7, #4]
 8003434:	6c9b      	ldr	r3, [r3, #72]	@ 0x48
 8003436:	f1b3 4f80 	cmp.w	r3, #1073741824	@ 0x40000000
 800343a:	d105      	bne.n	8003448 <HAL_RCCEx_PeriphCLKConfig+0x454>
 800343c:	4b13      	ldr	r3, [pc, #76]	@ (800348c <HAL_RCCEx_PeriphCLKConfig+0x498>)
 800343e:	68db      	ldr	r3, [r3, #12]
 8003440:	4a12      	ldr	r2, [pc, #72]	@ (800348c <HAL_RCCEx_PeriphCLKConfig+0x498>)
 8003442:	f443 3380 	orr.w	r3, r3, #65536	@ 0x10000
 8003446:	60d3      	str	r3, [r2, #12]
 8003448:	687b      	ldr	r3, [r7, #4]
 800344a:	681b      	ldr	r3, [r3, #0]
 800344c:	f403 2380 	and.w	r3, r3, #262144	@ 0x40000
 8003450:	2b00      	cmp	r3, #0
 8003452:	d015      	beq.n	8003480 <HAL_RCCEx_PeriphCLKConfig+0x48c>
 8003454:	4b0d      	ldr	r3, [pc, #52]	@ (800348c <HAL_RCCEx_PeriphCLKConfig+0x498>)
 8003456:	f8d3 309c 	ldr.w	r3, [r3, #156]	@ 0x9c
 800345a:	f423 1240 	bic.w	r2, r3, #3145728	@ 0x300000
 800345e:	687b      	ldr	r3, [r7, #4]
 8003460:	6cdb      	ldr	r3, [r3, #76]	@ 0x4c
 8003462:	490a      	ldr	r1, [pc, #40]	@ (800348c <HAL_RCCEx_PeriphCLKConfig+0x498>)
 8003464:	4313      	orrs	r3, r2
 8003466:	f8c1 309c 	str.w	r3, [r1, #156]	@ 0x9c
 800346a:	687b      	ldr	r3, [r7, #4]
 800346c:	6cdb      	ldr	r3, [r3, #76]	@ 0x4c
 800346e:	f5b3 1f00 	cmp.w	r3, #2097152	@ 0x200000
 8003472:	d105      	bne.n	8003480 <HAL_RCCEx_PeriphCLKConfig+0x48c>
 8003474:	4b05      	ldr	r3, [pc, #20]	@ (800348c <HAL_RCCEx_PeriphCLKConfig+0x498>)
 8003476:	68db      	ldr	r3, [r3, #12]
 8003478:	4a04      	ldr	r2, [pc, #16]	@ (800348c <HAL_RCCEx_PeriphCLKConfig+0x498>)
 800347a:	f443 1380 	orr.w	r3, r3, #1048576	@ 0x100000
 800347e:	60d3      	str	r3, [r2, #12]
 8003480:	7cbb      	ldrb	r3, [r7, #18]
 8003482:	4618      	mov	r0, r3
 8003484:	3718      	adds	r7, #24
 8003486:	46bd      	mov	sp, r7
 8003488:	bd80      	pop	{r7, pc}
 800348a:	bf00      	nop
 800348c:	40021000 	.word	0x40021000

08003490 <HAL_UART_Init>:
 8003490:	b580      	push	{r7, lr}
 8003492:	b082      	sub	sp, #8
 8003494:	af00      	add	r7, sp, #0
 8003496:	6078      	str	r0, [r7, #4]
 8003498:	687b      	ldr	r3, [r7, #4]
 800349a:	2b00      	cmp	r3, #0
 800349c:	d101      	bne.n	80034a2 <HAL_UART_Init+0x12>
 800349e:	2301      	movs	r3, #1
 80034a0:	e042      	b.n	8003528 <HAL_UART_Init+0x98>
 80034a2:	687b      	ldr	r3, [r7, #4]
 80034a4:	f8d3 3088 	ldr.w	r3, [r3, #136]	@ 0x88
 80034a8:	2b00      	cmp	r3, #0
 80034aa:	d106      	bne.n	80034ba <HAL_UART_Init+0x2a>
 80034ac:	687b      	ldr	r3, [r7, #4]
 80034ae:	2200      	movs	r2, #0
 80034b0:	f883 2084 	strb.w	r2, [r3, #132]	@ 0x84
 80034b4:	6878      	ldr	r0, [r7, #4]
 80034b6:	f7fd feaf 	bl	8001218 <HAL_UART_MspInit>
 80034ba:	687b      	ldr	r3, [r7, #4]
 80034bc:	2224      	movs	r2, #36	@ 0x24
 80034be:	f8c3 2088 	str.w	r2, [r3, #136]	@ 0x88
 80034c2:	687b      	ldr	r3, [r7, #4]
 80034c4:	681b      	ldr	r3, [r3, #0]
 80034c6:	681a      	ldr	r2, [r3, #0]
 80034c8:	687b      	ldr	r3, [r7, #4]
 80034ca:	681b      	ldr	r3, [r3, #0]
 80034cc:	f022 0201 	bic.w	r2, r2, #1
 80034d0:	601a      	str	r2, [r3, #0]
 80034d2:	687b      	ldr	r3, [r7, #4]
 80034d4:	6a9b      	ldr	r3, [r3, #40]	@ 0x28
 80034d6:	2b00      	cmp	r3, #0
 80034d8:	d002      	beq.n	80034e0 <HAL_UART_Init+0x50>
 80034da:	6878      	ldr	r0, [r7, #4]
 80034dc:	f000 fb24 	bl	8003b28 <UART_AdvFeatureConfig>
 80034e0:	6878      	ldr	r0, [r7, #4]
 80034e2:	f000 f825 	bl	8003530 <UART_SetConfig>
 80034e6:	4603      	mov	r3, r0
 80034e8:	2b01      	cmp	r3, #1
 80034ea:	d101      	bne.n	80034f0 <HAL_UART_Init+0x60>
 80034ec:	2301      	movs	r3, #1
 80034ee:	e01b      	b.n	8003528 <HAL_UART_Init+0x98>
 80034f0:	687b      	ldr	r3, [r7, #4]
 80034f2:	681b      	ldr	r3, [r3, #0]
 80034f4:	685a      	ldr	r2, [r3, #4]
 80034f6:	687b      	ldr	r3, [r7, #4]
 80034f8:	681b      	ldr	r3, [r3, #0]
 80034fa:	f422 4290 	bic.w	r2, r2, #18432	@ 0x4800
 80034fe:	605a      	str	r2, [r3, #4]
 8003500:	687b      	ldr	r3, [r7, #4]
 8003502:	681b      	ldr	r3, [r3, #0]
 8003504:	689a      	ldr	r2, [r3, #8]
 8003506:	687b      	ldr	r3, [r7, #4]
 8003508:	681b      	ldr	r3, [r3, #0]
 800350a:	f022 022a 	bic.w	r2, r2, #42	@ 0x2a
 800350e:	609a      	str	r2, [r3, #8]
 8003510:	687b      	ldr	r3, [r7, #4]
 8003512:	681b      	ldr	r3, [r3, #0]
 8003514:	681a      	ldr	r2, [r3, #0]
 8003516:	687b      	ldr	r3, [r7, #4]
 8003518:	681b      	ldr	r3, [r3, #0]
 800351a:	f042 0201 	orr.w	r2, r2, #1
 800351e:	601a      	str	r2, [r3, #0]
 8003520:	6878      	ldr	r0, [r7, #4]
 8003522:	f000 fba3 	bl	8003c6c <UART_CheckIdleState>
 8003526:	4603      	mov	r3, r0
 8003528:	4618      	mov	r0, r3
 800352a:	3708      	adds	r7, #8
 800352c:	46bd      	mov	sp, r7
 800352e:	bd80      	pop	{r7, pc}

08003530 <UART_SetConfig>:
 8003530:	e92d 4fb0 	stmdb	sp!, {r4, r5, r7, r8, r9, sl, fp, lr}
 8003534:	b08c      	sub	sp, #48	@ 0x30
 8003536:	af00      	add	r7, sp, #0
 8003538:	6178      	str	r0, [r7, #20]
 800353a:	2300      	movs	r3, #0
 800353c:	f887 302a 	strb.w	r3, [r7, #42]	@ 0x2a
 8003540:	697b      	ldr	r3, [r7, #20]
 8003542:	689a      	ldr	r2, [r3, #8]
 8003544:	697b      	ldr	r3, [r7, #20]
 8003546:	691b      	ldr	r3, [r3, #16]
 8003548:	431a      	orrs	r2, r3
 800354a:	697b      	ldr	r3, [r7, #20]
 800354c:	695b      	ldr	r3, [r3, #20]
 800354e:	431a      	orrs	r2, r3
 8003550:	697b      	ldr	r3, [r7, #20]
 8003552:	69db      	ldr	r3, [r3, #28]
 8003554:	4313      	orrs	r3, r2
 8003556:	62fb      	str	r3, [r7, #44]	@ 0x2c
 8003558:	697b      	ldr	r3, [r7, #20]
 800355a:	681b      	ldr	r3, [r3, #0]
 800355c:	681a      	ldr	r2, [r3, #0]
 800355e:	4baa      	ldr	r3, [pc, #680]	@ (8003808 <UART_SetConfig+0x2d8>)
 8003560:	4013      	ands	r3, r2
 8003562:	697a      	ldr	r2, [r7, #20]
 8003564:	6812      	ldr	r2, [r2, #0]
 8003566:	6af9      	ldr	r1, [r7, #44]	@ 0x2c
 8003568:	430b      	orrs	r3, r1
 800356a:	6013      	str	r3, [r2, #0]
 800356c:	697b      	ldr	r3, [r7, #20]
 800356e:	681b      	ldr	r3, [r3, #0]
 8003570:	685b      	ldr	r3, [r3, #4]
 8003572:	f423 5140 	bic.w	r1, r3, #12288	@ 0x3000
 8003576:	697b      	ldr	r3, [r7, #20]
 8003578:	68da      	ldr	r2, [r3, #12]
 800357a:	697b      	ldr	r3, [r7, #20]
 800357c:	681b      	ldr	r3, [r3, #0]
 800357e:	430a      	orrs	r2, r1
 8003580:	605a      	str	r2, [r3, #4]
 8003582:	697b      	ldr	r3, [r7, #20]
 8003584:	699b      	ldr	r3, [r3, #24]
 8003586:	62fb      	str	r3, [r7, #44]	@ 0x2c
 8003588:	697b      	ldr	r3, [r7, #20]
 800358a:	681b      	ldr	r3, [r3, #0]
 800358c:	4a9f      	ldr	r2, [pc, #636]	@ (800380c <UART_SetConfig+0x2dc>)
 800358e:	4293      	cmp	r3, r2
 8003590:	d004      	beq.n	800359c <UART_SetConfig+0x6c>
 8003592:	697b      	ldr	r3, [r7, #20]
 8003594:	6a1b      	ldr	r3, [r3, #32]
 8003596:	6afa      	ldr	r2, [r7, #44]	@ 0x2c
 8003598:	4313      	orrs	r3, r2
 800359a:	62fb      	str	r3, [r7, #44]	@ 0x2c
 800359c:	697b      	ldr	r3, [r7, #20]
 800359e:	681b      	ldr	r3, [r3, #0]
 80035a0:	689b      	ldr	r3, [r3, #8]
 80035a2:	f023 436e 	bic.w	r3, r3, #3992977408	@ 0xee000000
 80035a6:	f423 6330 	bic.w	r3, r3, #2816	@ 0xb00
 80035aa:	697a      	ldr	r2, [r7, #20]
 80035ac:	6812      	ldr	r2, [r2, #0]
 80035ae:	6af9      	ldr	r1, [r7, #44]	@ 0x2c
 80035b0:	430b      	orrs	r3, r1
 80035b2:	6093      	str	r3, [r2, #8]
 80035b4:	697b      	ldr	r3, [r7, #20]
 80035b6:	681b      	ldr	r3, [r3, #0]
 80035b8:	6adb      	ldr	r3, [r3, #44]	@ 0x2c
 80035ba:	f023 010f 	bic.w	r1, r3, #15
 80035be:	697b      	ldr	r3, [r7, #20]
 80035c0:	6a5a      	ldr	r2, [r3, #36]	@ 0x24
 80035c2:	697b      	ldr	r3, [r7, #20]
 80035c4:	681b      	ldr	r3, [r3, #0]
 80035c6:	430a      	orrs	r2, r1
 80035c8:	62da      	str	r2, [r3, #44]	@ 0x2c
 80035ca:	697b      	ldr	r3, [r7, #20]
 80035cc:	681b      	ldr	r3, [r3, #0]
 80035ce:	4a90      	ldr	r2, [pc, #576]	@ (8003810 <UART_SetConfig+0x2e0>)
 80035d0:	4293      	cmp	r3, r2
 80035d2:	d125      	bne.n	8003620 <UART_SetConfig+0xf0>
 80035d4:	4b8f      	ldr	r3, [pc, #572]	@ (8003814 <UART_SetConfig+0x2e4>)
 80035d6:	f8d3 3088 	ldr.w	r3, [r3, #136]	@ 0x88
 80035da:	f003 0303 	and.w	r3, r3, #3
 80035de:	2b03      	cmp	r3, #3
 80035e0:	d81a      	bhi.n	8003618 <UART_SetConfig+0xe8>
 80035e2:	a201      	add	r2, pc, #4	@ (adr r2, 80035e8 <UART_SetConfig+0xb8>)
 80035e4:	f852 f023 	ldr.w	pc, [r2, r3, lsl #2]
 80035e8:	080035f9 	.word	0x080035f9
 80035ec:	08003609 	.word	0x08003609
 80035f0:	08003601 	.word	0x08003601
 80035f4:	08003611 	.word	0x08003611
 80035f8:	2301      	movs	r3, #1
 80035fa:	f887 302b 	strb.w	r3, [r7, #43]	@ 0x2b
 80035fe:	e116      	b.n	800382e <UART_SetConfig+0x2fe>
 8003600:	2302      	movs	r3, #2
 8003602:	f887 302b 	strb.w	r3, [r7, #43]	@ 0x2b
 8003606:	e112      	b.n	800382e <UART_SetConfig+0x2fe>
 8003608:	2304      	movs	r3, #4
 800360a:	f887 302b 	strb.w	r3, [r7, #43]	@ 0x2b
 800360e:	e10e      	b.n	800382e <UART_SetConfig+0x2fe>
 8003610:	2308      	movs	r3, #8
 8003612:	f887 302b 	strb.w	r3, [r7, #43]	@ 0x2b
 8003616:	e10a      	b.n	800382e <UART_SetConfig+0x2fe>
 8003618:	2310      	movs	r3, #16
 800361a:	f887 302b 	strb.w	r3, [r7, #43]	@ 0x2b
 800361e:	e106      	b.n	800382e <UART_SetConfig+0x2fe>
 8003620:	697b      	ldr	r3, [r7, #20]
 8003622:	681b      	ldr	r3, [r3, #0]
 8003624:	4a7c      	ldr	r2, [pc, #496]	@ (8003818 <UART_SetConfig+0x2e8>)
 8003626:	4293      	cmp	r3, r2
 8003628:	d138      	bne.n	800369c <UART_SetConfig+0x16c>
 800362a:	4b7a      	ldr	r3, [pc, #488]	@ (8003814 <UART_SetConfig+0x2e4>)
 800362c:	f8d3 3088 	ldr.w	r3, [r3, #136]	@ 0x88
 8003630:	f003 030c 	and.w	r3, r3, #12
 8003634:	2b0c      	cmp	r3, #12
 8003636:	d82d      	bhi.n	8003694 <UART_SetConfig+0x164>
 8003638:	a201      	add	r2, pc, #4	@ (adr r2, 8003640 <UART_SetConfig+0x110>)
 800363a:	f852 f023 	ldr.w	pc, [r2, r3, lsl #2]
 800363e:	bf00      	nop
 8003640:	08003675 	.word	0x08003675
 8003644:	08003695 	.word	0x08003695
 8003648:	08003695 	.word	0x08003695
 800364c:	08003695 	.word	0x08003695
 8003650:	08003685 	.word	0x08003685
 8003654:	08003695 	.word	0x08003695
 8003658:	08003695 	.word	0x08003695
 800365c:	08003695 	.word	0x08003695
 8003660:	0800367d 	.word	0x0800367d
 8003664:	08003695 	.word	0x08003695
 8003668:	08003695 	.word	0x08003695
 800366c:	08003695 	.word	0x08003695
 8003670:	0800368d 	.word	0x0800368d
 8003674:	2300      	movs	r3, #0
 8003676:	f887 302b 	strb.w	r3, [r7, #43]	@ 0x2b
 800367a:	e0d8      	b.n	800382e <UART_SetConfig+0x2fe>
 800367c:	2302      	movs	r3, #2
 800367e:	f887 302b 	strb.w	r3, [r7, #43]	@ 0x2b
 8003682:	e0d4      	b.n	800382e <UART_SetConfig+0x2fe>
 8003684:	2304      	movs	r3, #4
 8003686:	f887 302b 	strb.w	r3, [r7, #43]	@ 0x2b
 800368a:	e0d0      	b.n	800382e <UART_SetConfig+0x2fe>
 800368c:	2308      	movs	r3, #8
 800368e:	f887 302b 	strb.w	r3, [r7, #43]	@ 0x2b
 8003692:	e0cc      	b.n	800382e <UART_SetConfig+0x2fe>
 8003694:	2310      	movs	r3, #16
 8003696:	f887 302b 	strb.w	r3, [r7, #43]	@ 0x2b
 800369a:	e0c8      	b.n	800382e <UART_SetConfig+0x2fe>
 800369c:	697b      	ldr	r3, [r7, #20]
 800369e:	681b      	ldr	r3, [r3, #0]
 80036a0:	4a5e      	ldr	r2, [pc, #376]	@ (800381c <UART_SetConfig+0x2ec>)
 80036a2:	4293      	cmp	r3, r2
 80036a4:	d125      	bne.n	80036f2 <UART_SetConfig+0x1c2>
 80036a6:	4b5b      	ldr	r3, [pc, #364]	@ (8003814 <UART_SetConfig+0x2e4>)
 80036a8:	f8d3 3088 	ldr.w	r3, [r3, #136]	@ 0x88
 80036ac:	f003 0330 	and.w	r3, r3, #48	@ 0x30
 80036b0:	2b30      	cmp	r3, #48	@ 0x30
 80036b2:	d016      	beq.n	80036e2 <UART_SetConfig+0x1b2>
 80036b4:	2b30      	cmp	r3, #48	@ 0x30
 80036b6:	d818      	bhi.n	80036ea <UART_SetConfig+0x1ba>
 80036b8:	2b20      	cmp	r3, #32
 80036ba:	d00a      	beq.n	80036d2 <UART_SetConfig+0x1a2>
 80036bc:	2b20      	cmp	r3, #32
 80036be:	d814      	bhi.n	80036ea <UART_SetConfig+0x1ba>
 80036c0:	2b00      	cmp	r3, #0
 80036c2:	d002      	beq.n	80036ca <UART_SetConfig+0x19a>
 80036c4:	2b10      	cmp	r3, #16
 80036c6:	d008      	beq.n	80036da <UART_SetConfig+0x1aa>
 80036c8:	e00f      	b.n	80036ea <UART_SetConfig+0x1ba>
 80036ca:	2300      	movs	r3, #0
 80036cc:	f887 302b 	strb.w	r3, [r7, #43]	@ 0x2b
 80036d0:	e0ad      	b.n	800382e <UART_SetConfig+0x2fe>
 80036d2:	2302      	movs	r3, #2
 80036d4:	f887 302b 	strb.w	r3, [r7, #43]	@ 0x2b
 80036d8:	e0a9      	b.n	800382e <UART_SetConfig+0x2fe>
 80036da:	2304      	movs	r3, #4
 80036dc:	f887 302b 	strb.w	r3, [r7, #43]	@ 0x2b
 80036e0:	e0a5      	b.n	800382e <UART_SetConfig+0x2fe>
 80036e2:	2308      	movs	r3, #8
 80036e4:	f887 302b 	strb.w	r3, [r7, #43]	@ 0x2b
 80036e8:	e0a1      	b.n	800382e <UART_SetConfig+0x2fe>
 80036ea:	2310      	movs	r3, #16
 80036ec:	f887 302b 	strb.w	r3, [r7, #43]	@ 0x2b
 80036f0:	e09d      	b.n	800382e <UART_SetConfig+0x2fe>
 80036f2:	697b      	ldr	r3, [r7, #20]
 80036f4:	681b      	ldr	r3, [r3, #0]
 80036f6:	4a4a      	ldr	r2, [pc, #296]	@ (8003820 <UART_SetConfig+0x2f0>)
 80036f8:	4293      	cmp	r3, r2
 80036fa:	d125      	bne.n	8003748 <UART_SetConfig+0x218>
 80036fc:	4b45      	ldr	r3, [pc, #276]	@ (8003814 <UART_SetConfig+0x2e4>)
 80036fe:	f8d3 3088 	ldr.w	r3, [r3, #136]	@ 0x88
 8003702:	f003 03c0 	and.w	r3, r3, #192	@ 0xc0
 8003706:	2bc0      	cmp	r3, #192	@ 0xc0
 8003708:	d016      	beq.n	8003738 <UART_SetConfig+0x208>
 800370a:	2bc0      	cmp	r3, #192	@ 0xc0
 800370c:	d818      	bhi.n	8003740 <UART_SetConfig+0x210>
 800370e:	2b80      	cmp	r3, #128	@ 0x80
 8003710:	d00a      	beq.n	8003728 <UART_SetConfig+0x1f8>
 8003712:	2b80      	cmp	r3, #128	@ 0x80
 8003714:	d814      	bhi.n	8003740 <UART_SetConfig+0x210>
 8003716:	2b00      	cmp	r3, #0
 8003718:	d002      	beq.n	8003720 <UART_SetConfig+0x1f0>
 800371a:	2b40      	cmp	r3, #64	@ 0x40
 800371c:	d008      	beq.n	8003730 <UART_SetConfig+0x200>
 800371e:	e00f      	b.n	8003740 <UART_SetConfig+0x210>
 8003720:	2300      	movs	r3, #0
 8003722:	f887 302b 	strb.w	r3, [r7, #43]	@ 0x2b
 8003726:	e082      	b.n	800382e <UART_SetConfig+0x2fe>
 8003728:	2302      	movs	r3, #2
 800372a:	f887 302b 	strb.w	r3, [r7, #43]	@ 0x2b
 800372e:	e07e      	b.n	800382e <UART_SetConfig+0x2fe>
 8003730:	2304      	movs	r3, #4
 8003732:	f887 302b 	strb.w	r3, [r7, #43]	@ 0x2b
 8003736:	e07a      	b.n	800382e <UART_SetConfig+0x2fe>
 8003738:	2308      	movs	r3, #8
 800373a:	f887 302b 	strb.w	r3, [r7, #43]	@ 0x2b
 800373e:	e076      	b.n	800382e <UART_SetConfig+0x2fe>
 8003740:	2310      	movs	r3, #16
 8003742:	f887 302b 	strb.w	r3, [r7, #43]	@ 0x2b
 8003746:	e072      	b.n	800382e <UART_SetConfig+0x2fe>
 8003748:	697b      	ldr	r3, [r7, #20]
 800374a:	681b      	ldr	r3, [r3, #0]
 800374c:	4a35      	ldr	r2, [pc, #212]	@ (8003824 <UART_SetConfig+0x2f4>)
 800374e:	4293      	cmp	r3, r2
 8003750:	d12a      	bne.n	80037a8 <UART_SetConfig+0x278>
 8003752:	4b30      	ldr	r3, [pc, #192]	@ (8003814 <UART_SetConfig+0x2e4>)
 8003754:	f8d3 3088 	ldr.w	r3, [r3, #136]	@ 0x88
 8003758:	f403 7340 	and.w	r3, r3, #768	@ 0x300
 800375c:	f5b3 7f40 	cmp.w	r3, #768	@ 0x300
 8003760:	d01a      	beq.n	8003798 <UART_SetConfig+0x268>
 8003762:	f5b3 7f40 	cmp.w	r3, #768	@ 0x300
 8003766:	d81b      	bhi.n	80037a0 <UART_SetConfig+0x270>
 8003768:	f5b3 7f00 	cmp.w	r3, #512	@ 0x200
 800376c:	d00c      	beq.n	8003788 <UART_SetConfig+0x258>
 800376e:	f5b3 7f00 	cmp.w	r3, #512	@ 0x200
 8003772:	d815      	bhi.n	80037a0 <UART_SetConfig+0x270>
 8003774:	2b00      	cmp	r3, #0
 8003776:	d003      	beq.n	8003780 <UART_SetConfig+0x250>
 8003778:	f5b3 7f80 	cmp.w	r3, #256	@ 0x100
 800377c:	d008      	beq.n	8003790 <UART_SetConfig+0x260>
 800377e:	e00f      	b.n	80037a0 <UART_SetConfig+0x270>
 8003780:	2300      	movs	r3, #0
 8003782:	f887 302b 	strb.w	r3, [r7, #43]	@ 0x2b
 8003786:	e052      	b.n	800382e <UART_SetConfig+0x2fe>
 8003788:	2302      	movs	r3, #2
 800378a:	f887 302b 	strb.w	r3, [r7, #43]	@ 0x2b
 800378e:	e04e      	b.n	800382e <UART_SetConfig+0x2fe>
 8003790:	2304      	movs	r3, #4
 8003792:	f887 302b 	strb.w	r3, [r7, #43]	@ 0x2b
 8003796:	e04a      	b.n	800382e <UART_SetConfig+0x2fe>
 8003798:	2308      	movs	r3, #8
 800379a:	f887 302b 	strb.w	r3, [r7, #43]	@ 0x2b
 800379e:	e046      	b.n	800382e <UART_SetConfig+0x2fe>
 80037a0:	2310      	movs	r3, #16
 80037a2:	f887 302b 	strb.w	r3, [r7, #43]	@ 0x2b
 80037a6:	e042      	b.n	800382e <UART_SetConfig+0x2fe>
 80037a8:	697b      	ldr	r3, [r7, #20]
 80037aa:	681b      	ldr	r3, [r3, #0]
 80037ac:	4a17      	ldr	r2, [pc, #92]	@ (800380c <UART_SetConfig+0x2dc>)
 80037ae:	4293      	cmp	r3, r2
 80037b0:	d13a      	bne.n	8003828 <UART_SetConfig+0x2f8>
 80037b2:	4b18      	ldr	r3, [pc, #96]	@ (8003814 <UART_SetConfig+0x2e4>)
 80037b4:	f8d3 3088 	ldr.w	r3, [r3, #136]	@ 0x88
 80037b8:	f403 6340 	and.w	r3, r3, #3072	@ 0xc00
 80037bc:	f5b3 6f40 	cmp.w	r3, #3072	@ 0xc00
 80037c0:	d01a      	beq.n	80037f8 <UART_SetConfig+0x2c8>
 80037c2:	f5b3 6f40 	cmp.w	r3, #3072	@ 0xc00
 80037c6:	d81b      	bhi.n	8003800 <UART_SetConfig+0x2d0>
 80037c8:	f5b3 6f00 	cmp.w	r3, #2048	@ 0x800
 80037cc:	d00c      	beq.n	80037e8 <UART_SetConfig+0x2b8>
 80037ce:	f5b3 6f00 	cmp.w	r3, #2048	@ 0x800
 80037d2:	d815      	bhi.n	8003800 <UART_SetConfig+0x2d0>
 80037d4:	2b00      	cmp	r3, #0
 80037d6:	d003      	beq.n	80037e0 <UART_SetConfig+0x2b0>
 80037d8:	f5b3 6f80 	cmp.w	r3, #1024	@ 0x400
 80037dc:	d008      	beq.n	80037f0 <UART_SetConfig+0x2c0>
 80037de:	e00f      	b.n	8003800 <UART_SetConfig+0x2d0>
 80037e0:	2300      	movs	r3, #0
 80037e2:	f887 302b 	strb.w	r3, [r7, #43]	@ 0x2b
 80037e6:	e022      	b.n	800382e <UART_SetConfig+0x2fe>
 80037e8:	2302      	movs	r3, #2
 80037ea:	f887 302b 	strb.w	r3, [r7, #43]	@ 0x2b
 80037ee:	e01e      	b.n	800382e <UART_SetConfig+0x2fe>
 80037f0:	2304      	movs	r3, #4
 80037f2:	f887 302b 	strb.w	r3, [r7, #43]	@ 0x2b
 80037f6:	e01a      	b.n	800382e <UART_SetConfig+0x2fe>
 80037f8:	2308      	movs	r3, #8
 80037fa:	f887 302b 	strb.w	r3, [r7, #43]	@ 0x2b
 80037fe:	e016      	b.n	800382e <UART_SetConfig+0x2fe>
 8003800:	2310      	movs	r3, #16
 8003802:	f887 302b 	strb.w	r3, [r7, #43]	@ 0x2b
 8003806:	e012      	b.n	800382e <UART_SetConfig+0x2fe>
 8003808:	cfff69f3 	.word	0xcfff69f3
 800380c:	40008000 	.word	0x40008000
 8003810:	40013800 	.word	0x40013800
 8003814:	40021000 	.word	0x40021000
 8003818:	40004400 	.word	0x40004400
 800381c:	40004800 	.word	0x40004800
 8003820:	40004c00 	.word	0x40004c00
 8003824:	40005000 	.word	0x40005000
 8003828:	2310      	movs	r3, #16
 800382a:	f887 302b 	strb.w	r3, [r7, #43]	@ 0x2b
 800382e:	697b      	ldr	r3, [r7, #20]
 8003830:	681b      	ldr	r3, [r3, #0]
 8003832:	4aae      	ldr	r2, [pc, #696]	@ (8003aec <UART_SetConfig+0x5bc>)
 8003834:	4293      	cmp	r3, r2
 8003836:	f040 8097 	bne.w	8003968 <UART_SetConfig+0x438>
 800383a:	f897 302b 	ldrb.w	r3, [r7, #43]	@ 0x2b
 800383e:	2b08      	cmp	r3, #8
 8003840:	d823      	bhi.n	800388a <UART_SetConfig+0x35a>
 8003842:	a201      	add	r2, pc, #4	@ (adr r2, 8003848 <UART_SetConfig+0x318>)
 8003844:	f852 f023 	ldr.w	pc, [r2, r3, lsl #2]
 8003848:	0800386d 	.word	0x0800386d
 800384c:	0800388b 	.word	0x0800388b
 8003850:	08003875 	.word	0x08003875
 8003854:	0800388b 	.word	0x0800388b
 8003858:	0800387b 	.word	0x0800387b
 800385c:	0800388b 	.word	0x0800388b
 8003860:	0800388b 	.word	0x0800388b
 8003864:	0800388b 	.word	0x0800388b
 8003868:	08003883 	.word	0x08003883
 800386c:	f7ff fb50 	bl	8002f10 <HAL_RCC_GetPCLK1Freq>
 8003870:	6278      	str	r0, [r7, #36]	@ 0x24
 8003872:	e010      	b.n	8003896 <UART_SetConfig+0x366>
 8003874:	4b9e      	ldr	r3, [pc, #632]	@ (8003af0 <UART_SetConfig+0x5c0>)
 8003876:	627b      	str	r3, [r7, #36]	@ 0x24
 8003878:	e00d      	b.n	8003896 <UART_SetConfig+0x366>
 800387a:	f7ff fadb 	bl	8002e34 <HAL_RCC_GetSysClockFreq>
 800387e:	6278      	str	r0, [r7, #36]	@ 0x24
 8003880:	e009      	b.n	8003896 <UART_SetConfig+0x366>
 8003882:	f44f 4300 	mov.w	r3, #32768	@ 0x8000
 8003886:	627b      	str	r3, [r7, #36]	@ 0x24
 8003888:	e005      	b.n	8003896 <UART_SetConfig+0x366>
 800388a:	2300      	movs	r3, #0
 800388c:	627b      	str	r3, [r7, #36]	@ 0x24
 800388e:	2301      	movs	r3, #1
 8003890:	f887 302a 	strb.w	r3, [r7, #42]	@ 0x2a
 8003894:	bf00      	nop
 8003896:	6a7b      	ldr	r3, [r7, #36]	@ 0x24
 8003898:	2b00      	cmp	r3, #0
 800389a:	f000 8130 	beq.w	8003afe <UART_SetConfig+0x5ce>
 800389e:	697b      	ldr	r3, [r7, #20]
 80038a0:	6a5b      	ldr	r3, [r3, #36]	@ 0x24
 80038a2:	4a94      	ldr	r2, [pc, #592]	@ (8003af4 <UART_SetConfig+0x5c4>)
 80038a4:	f832 3013 	ldrh.w	r3, [r2, r3, lsl #1]
 80038a8:	461a      	mov	r2, r3
 80038aa:	6a7b      	ldr	r3, [r7, #36]	@ 0x24
 80038ac:	fbb3 f3f2 	udiv	r3, r3, r2
 80038b0:	61bb      	str	r3, [r7, #24]
 80038b2:	697b      	ldr	r3, [r7, #20]
 80038b4:	685a      	ldr	r2, [r3, #4]
 80038b6:	4613      	mov	r3, r2
 80038b8:	005b      	lsls	r3, r3, #1
 80038ba:	4413      	add	r3, r2
 80038bc:	69ba      	ldr	r2, [r7, #24]
 80038be:	429a      	cmp	r2, r3
 80038c0:	d305      	bcc.n	80038ce <UART_SetConfig+0x39e>
 80038c2:	697b      	ldr	r3, [r7, #20]
 80038c4:	685b      	ldr	r3, [r3, #4]
 80038c6:	031b      	lsls	r3, r3, #12
 80038c8:	69ba      	ldr	r2, [r7, #24]
 80038ca:	429a      	cmp	r2, r3
 80038cc:	d903      	bls.n	80038d6 <UART_SetConfig+0x3a6>
 80038ce:	2301      	movs	r3, #1
 80038d0:	f887 302a 	strb.w	r3, [r7, #42]	@ 0x2a
 80038d4:	e113      	b.n	8003afe <UART_SetConfig+0x5ce>
 80038d6:	6a7b      	ldr	r3, [r7, #36]	@ 0x24
 80038d8:	2200      	movs	r2, #0
 80038da:	60bb      	str	r3, [r7, #8]
 80038dc:	60fa      	str	r2, [r7, #12]
 80038de:	697b      	ldr	r3, [r7, #20]
 80038e0:	6a5b      	ldr	r3, [r3, #36]	@ 0x24
 80038e2:	4a84      	ldr	r2, [pc, #528]	@ (8003af4 <UART_SetConfig+0x5c4>)
 80038e4:	f832 3013 	ldrh.w	r3, [r2, r3, lsl #1]
 80038e8:	b29b      	uxth	r3, r3
 80038ea:	2200      	movs	r2, #0
 80038ec:	603b      	str	r3, [r7, #0]
 80038ee:	607a      	str	r2, [r7, #4]
 80038f0:	e9d7 2300 	ldrd	r2, r3, [r7]
 80038f4:	e9d7 0102 	ldrd	r0, r1, [r7, #8]
 80038f8:	f7fc fce2 	bl	80002c0 <__aeabi_uldivmod>
 80038fc:	4602      	mov	r2, r0
 80038fe:	460b      	mov	r3, r1
 8003900:	4610      	mov	r0, r2
 8003902:	4619      	mov	r1, r3
 8003904:	f04f 0200 	mov.w	r2, #0
 8003908:	f04f 0300 	mov.w	r3, #0
 800390c:	020b      	lsls	r3, r1, #8
 800390e:	ea43 6310 	orr.w	r3, r3, r0, lsr #24
 8003912:	0202      	lsls	r2, r0, #8
 8003914:	6979      	ldr	r1, [r7, #20]
 8003916:	6849      	ldr	r1, [r1, #4]
 8003918:	0849      	lsrs	r1, r1, #1
 800391a:	2000      	movs	r0, #0
 800391c:	460c      	mov	r4, r1
 800391e:	4605      	mov	r5, r0
 8003920:	eb12 0804 	adds.w	r8, r2, r4
 8003924:	eb43 0905 	adc.w	r9, r3, r5
 8003928:	697b      	ldr	r3, [r7, #20]
 800392a:	685b      	ldr	r3, [r3, #4]
 800392c:	2200      	movs	r2, #0
 800392e:	469a      	mov	sl, r3
 8003930:	4693      	mov	fp, r2
 8003932:	4652      	mov	r2, sl
 8003934:	465b      	mov	r3, fp
 8003936:	4640      	mov	r0, r8
 8003938:	4649      	mov	r1, r9
 800393a:	f7fc fcc1 	bl	80002c0 <__aeabi_uldivmod>
 800393e:	4602      	mov	r2, r0
 8003940:	460b      	mov	r3, r1
 8003942:	4613      	mov	r3, r2
 8003944:	623b      	str	r3, [r7, #32]
 8003946:	6a3b      	ldr	r3, [r7, #32]
 8003948:	f5b3 7f40 	cmp.w	r3, #768	@ 0x300
 800394c:	d308      	bcc.n	8003960 <UART_SetConfig+0x430>
 800394e:	6a3b      	ldr	r3, [r7, #32]
 8003950:	f5b3 1f80 	cmp.w	r3, #1048576	@ 0x100000
 8003954:	d204      	bcs.n	8003960 <UART_SetConfig+0x430>
 8003956:	697b      	ldr	r3, [r7, #20]
 8003958:	681b      	ldr	r3, [r3, #0]
 800395a:	6a3a      	ldr	r2, [r7, #32]
 800395c:	60da      	str	r2, [r3, #12]
 800395e:	e0ce      	b.n	8003afe <UART_SetConfig+0x5ce>
 8003960:	2301      	movs	r3, #1
 8003962:	f887 302a 	strb.w	r3, [r7, #42]	@ 0x2a
 8003966:	e0ca      	b.n	8003afe <UART_SetConfig+0x5ce>
 8003968:	697b      	ldr	r3, [r7, #20]
 800396a:	69db      	ldr	r3, [r3, #28]
 800396c:	f5b3 4f00 	cmp.w	r3, #32768	@ 0x8000
 8003970:	d166      	bne.n	8003a40 <UART_SetConfig+0x510>
 8003972:	f897 302b 	ldrb.w	r3, [r7, #43]	@ 0x2b
 8003976:	2b08      	cmp	r3, #8
 8003978:	d827      	bhi.n	80039ca <UART_SetConfig+0x49a>
 800397a:	a201      	add	r2, pc, #4	@ (adr r2, 8003980 <UART_SetConfig+0x450>)
 800397c:	f852 f023 	ldr.w	pc, [r2, r3, lsl #2]
 8003980:	080039a5 	.word	0x080039a5
 8003984:	080039ad 	.word	0x080039ad
 8003988:	080039b5 	.word	0x080039b5
 800398c:	080039cb 	.word	0x080039cb
 8003990:	080039bb 	.word	0x080039bb
 8003994:	080039cb 	.word	0x080039cb
 8003998:	080039cb 	.word	0x080039cb
 800399c:	080039cb 	.word	0x080039cb
 80039a0:	080039c3 	.word	0x080039c3
 80039a4:	f7ff fab4 	bl	8002f10 <HAL_RCC_GetPCLK1Freq>
 80039a8:	6278      	str	r0, [r7, #36]	@ 0x24
 80039aa:	e014      	b.n	80039d6 <UART_SetConfig+0x4a6>
 80039ac:	f7ff fac6 	bl	8002f3c <HAL_RCC_GetPCLK2Freq>
 80039b0:	6278      	str	r0, [r7, #36]	@ 0x24
 80039b2:	e010      	b.n	80039d6 <UART_SetConfig+0x4a6>
 80039b4:	4b4e      	ldr	r3, [pc, #312]	@ (8003af0 <UART_SetConfig+0x5c0>)
 80039b6:	627b      	str	r3, [r7, #36]	@ 0x24
 80039b8:	e00d      	b.n	80039d6 <UART_SetConfig+0x4a6>
 80039ba:	f7ff fa3b 	bl	8002e34 <HAL_RCC_GetSysClockFreq>
 80039be:	6278      	str	r0, [r7, #36]	@ 0x24
 80039c0:	e009      	b.n	80039d6 <UART_SetConfig+0x4a6>
 80039c2:	f44f 4300 	mov.w	r3, #32768	@ 0x8000
 80039c6:	627b      	str	r3, [r7, #36]	@ 0x24
 80039c8:	e005      	b.n	80039d6 <UART_SetConfig+0x4a6>
 80039ca:	2300      	movs	r3, #0
 80039cc:	627b      	str	r3, [r7, #36]	@ 0x24
 80039ce:	2301      	movs	r3, #1
 80039d0:	f887 302a 	strb.w	r3, [r7, #42]	@ 0x2a
 80039d4:	bf00      	nop
 80039d6:	6a7b      	ldr	r3, [r7, #36]	@ 0x24
 80039d8:	2b00      	cmp	r3, #0
 80039da:	f000 8090 	beq.w	8003afe <UART_SetConfig+0x5ce>
 80039de:	697b      	ldr	r3, [r7, #20]
 80039e0:	6a5b      	ldr	r3, [r3, #36]	@ 0x24
 80039e2:	4a44      	ldr	r2, [pc, #272]	@ (8003af4 <UART_SetConfig+0x5c4>)
 80039e4:	f832 3013 	ldrh.w	r3, [r2, r3, lsl #1]
 80039e8:	461a      	mov	r2, r3
 80039ea:	6a7b      	ldr	r3, [r7, #36]	@ 0x24
 80039ec:	fbb3 f3f2 	udiv	r3, r3, r2
 80039f0:	005a      	lsls	r2, r3, #1
 80039f2:	697b      	ldr	r3, [r7, #20]
 80039f4:	685b      	ldr	r3, [r3, #4]
 80039f6:	085b      	lsrs	r3, r3, #1
 80039f8:	441a      	add	r2, r3
 80039fa:	697b      	ldr	r3, [r7, #20]
 80039fc:	685b      	ldr	r3, [r3, #4]
 80039fe:	fbb2 f3f3 	udiv	r3, r2, r3
 8003a02:	623b      	str	r3, [r7, #32]
 8003a04:	6a3b      	ldr	r3, [r7, #32]
 8003a06:	2b0f      	cmp	r3, #15
 8003a08:	d916      	bls.n	8003a38 <UART_SetConfig+0x508>
 8003a0a:	6a3b      	ldr	r3, [r7, #32]
 8003a0c:	f5b3 3f80 	cmp.w	r3, #65536	@ 0x10000
 8003a10:	d212      	bcs.n	8003a38 <UART_SetConfig+0x508>
 8003a12:	6a3b      	ldr	r3, [r7, #32]
 8003a14:	b29b      	uxth	r3, r3
 8003a16:	f023 030f 	bic.w	r3, r3, #15
 8003a1a:	83fb      	strh	r3, [r7, #30]
 8003a1c:	6a3b      	ldr	r3, [r7, #32]
 8003a1e:	085b      	lsrs	r3, r3, #1
 8003a20:	b29b      	uxth	r3, r3
 8003a22:	f003 0307 	and.w	r3, r3, #7
 8003a26:	b29a      	uxth	r2, r3
 8003a28:	8bfb      	ldrh	r3, [r7, #30]
 8003a2a:	4313      	orrs	r3, r2
 8003a2c:	83fb      	strh	r3, [r7, #30]
 8003a2e:	697b      	ldr	r3, [r7, #20]
 8003a30:	681b      	ldr	r3, [r3, #0]
 8003a32:	8bfa      	ldrh	r2, [r7, #30]
 8003a34:	60da      	str	r2, [r3, #12]
 8003a36:	e062      	b.n	8003afe <UART_SetConfig+0x5ce>
 8003a38:	2301      	movs	r3, #1
 8003a3a:	f887 302a 	strb.w	r3, [r7, #42]	@ 0x2a
 8003a3e:	e05e      	b.n	8003afe <UART_SetConfig+0x5ce>
 8003a40:	f897 302b 	ldrb.w	r3, [r7, #43]	@ 0x2b
 8003a44:	2b08      	cmp	r3, #8
 8003a46:	d828      	bhi.n	8003a9a <UART_SetConfig+0x56a>
 8003a48:	a201      	add	r2, pc, #4	@ (adr r2, 8003a50 <UART_SetConfig+0x520>)
 8003a4a:	f852 f023 	ldr.w	pc, [r2, r3, lsl #2]
 8003a4e:	bf00      	nop
 8003a50:	08003a75 	.word	0x08003a75
 8003a54:	08003a7d 	.word	0x08003a7d
 8003a58:	08003a85 	.word	0x08003a85
 8003a5c:	08003a9b 	.word	0x08003a9b
 8003a60:	08003a8b 	.word	0x08003a8b
 8003a64:	08003a9b 	.word	0x08003a9b
 8003a68:	08003a9b 	.word	0x08003a9b
 8003a6c:	08003a9b 	.word	0x08003a9b
 8003a70:	08003a93 	.word	0x08003a93
 8003a74:	f7ff fa4c 	bl	8002f10 <HAL_RCC_GetPCLK1Freq>
 8003a78:	6278      	str	r0, [r7, #36]	@ 0x24
 8003a7a:	e014      	b.n	8003aa6 <UART_SetConfig+0x576>
 8003a7c:	f7ff fa5e 	bl	8002f3c <HAL_RCC_GetPCLK2Freq>
 8003a80:	6278      	str	r0, [r7, #36]	@ 0x24
 8003a82:	e010      	b.n	8003aa6 <UART_SetConfig+0x576>
 8003a84:	4b1a      	ldr	r3, [pc, #104]	@ (8003af0 <UART_SetConfig+0x5c0>)
 8003a86:	627b      	str	r3, [r7, #36]	@ 0x24
 8003a88:	e00d      	b.n	8003aa6 <UART_SetConfig+0x576>
 8003a8a:	f7ff f9d3 	bl	8002e34 <HAL_RCC_GetSysClockFreq>
 8003a8e:	6278      	str	r0, [r7, #36]	@ 0x24
 8003a90:	e009      	b.n	8003aa6 <UART_SetConfig+0x576>
 8003a92:	f44f 4300 	mov.w	r3, #32768	@ 0x8000
 8003a96:	627b      	str	r3, [r7, #36]	@ 0x24
 8003a98:	e005      	b.n	8003aa6 <UART_SetConfig+0x576>
 8003a9a:	2300      	movs	r3, #0
 8003a9c:	627b      	str	r3, [r7, #36]	@ 0x24
 8003a9e:	2301      	movs	r3, #1
 8003aa0:	f887 302a 	strb.w	r3, [r7, #42]	@ 0x2a
 8003aa4:	bf00      	nop
 8003aa6:	6a7b      	ldr	r3, [r7, #36]	@ 0x24
 8003aa8:	2b00      	cmp	r3, #0
 8003aaa:	d028      	beq.n	8003afe <UART_SetConfig+0x5ce>
 8003aac:	697b      	ldr	r3, [r7, #20]
 8003aae:	6a5b      	ldr	r3, [r3, #36]	@ 0x24
 8003ab0:	4a10      	ldr	r2, [pc, #64]	@ (8003af4 <UART_SetConfig+0x5c4>)
 8003ab2:	f832 3013 	ldrh.w	r3, [r2, r3, lsl #1]
 8003ab6:	461a      	mov	r2, r3
 8003ab8:	6a7b      	ldr	r3, [r7, #36]	@ 0x24
 8003aba:	fbb3 f2f2 	udiv	r2, r3, r2
 8003abe:	697b      	ldr	r3, [r7, #20]
 8003ac0:	685b      	ldr	r3, [r3, #4]
 8003ac2:	085b      	lsrs	r3, r3, #1
 8003ac4:	441a      	add	r2, r3
 8003ac6:	697b      	ldr	r3, [r7, #20]
 8003ac8:	685b      	ldr	r3, [r3, #4]
 8003aca:	fbb2 f3f3 	udiv	r3, r2, r3
 8003ace:	623b      	str	r3, [r7, #32]
 8003ad0:	6a3b      	ldr	r3, [r7, #32]
 8003ad2:	2b0f      	cmp	r3, #15
 8003ad4:	d910      	bls.n	8003af8 <UART_SetConfig+0x5c8>
 8003ad6:	6a3b      	ldr	r3, [r7, #32]
 8003ad8:	f5b3 3f80 	cmp.w	r3, #65536	@ 0x10000
 8003adc:	d20c      	bcs.n	8003af8 <UART_SetConfig+0x5c8>
 8003ade:	6a3b      	ldr	r3, [r7, #32]
 8003ae0:	b29a      	uxth	r2, r3
 8003ae2:	697b      	ldr	r3, [r7, #20]
 8003ae4:	681b      	ldr	r3, [r3, #0]
 8003ae6:	60da      	str	r2, [r3, #12]
 8003ae8:	e009      	b.n	8003afe <UART_SetConfig+0x5ce>
 8003aea:	bf00      	nop
 8003aec:	40008000 	.word	0x40008000
 8003af0:	00f42400 	.word	0x00f42400
 8003af4:	08004bac 	.word	0x08004bac
 8003af8:	2301      	movs	r3, #1
 8003afa:	f887 302a 	strb.w	r3, [r7, #42]	@ 0x2a
 8003afe:	697b      	ldr	r3, [r7, #20]
 8003b00:	2201      	movs	r2, #1
 8003b02:	f8a3 206a 	strh.w	r2, [r3, #106]	@ 0x6a
 8003b06:	697b      	ldr	r3, [r7, #20]
 8003b08:	2201      	movs	r2, #1
 8003b0a:	f8a3 2068 	strh.w	r2, [r3, #104]	@ 0x68
 8003b0e:	697b      	ldr	r3, [r7, #20]
 8003b10:	2200      	movs	r2, #0
 8003b12:	675a      	str	r2, [r3, #116]	@ 0x74
 8003b14:	697b      	ldr	r3, [r7, #20]
 8003b16:	2200      	movs	r2, #0
 8003b18:	679a      	str	r2, [r3, #120]	@ 0x78
 8003b1a:	f897 302a 	ldrb.w	r3, [r7, #42]	@ 0x2a
 8003b1e:	4618      	mov	r0, r3
 8003b20:	3730      	adds	r7, #48	@ 0x30
 8003b22:	46bd      	mov	sp, r7
 8003b24:	e8bd 8fb0 	ldmia.w	sp!, {r4, r5, r7, r8, r9, sl, fp, pc}

08003b28 <UART_AdvFeatureConfig>:
 8003b28:	b480      	push	{r7}
 8003b2a:	b083      	sub	sp, #12
 8003b2c:	af00      	add	r7, sp, #0
 8003b2e:	6078      	str	r0, [r7, #4]
 8003b30:	687b      	ldr	r3, [r7, #4]
 8003b32:	6a9b      	ldr	r3, [r3, #40]	@ 0x28
 8003b34:	f003 0308 	and.w	r3, r3, #8
 8003b38:	2b00      	cmp	r3, #0
 8003b3a:	d00a      	beq.n	8003b52 <UART_AdvFeatureConfig+0x2a>
 8003b3c:	687b      	ldr	r3, [r7, #4]
 8003b3e:	681b      	ldr	r3, [r3, #0]
 8003b40:	685b      	ldr	r3, [r3, #4]
 8003b42:	f423 4100 	bic.w	r1, r3, #32768	@ 0x8000
 8003b46:	687b      	ldr	r3, [r7, #4]
 8003b48:	6b9a      	ldr	r2, [r3, #56]	@ 0x38
 8003b4a:	687b      	ldr	r3, [r7, #4]
 8003b4c:	681b      	ldr	r3, [r3, #0]
 8003b4e:	430a      	orrs	r2, r1
 8003b50:	605a      	str	r2, [r3, #4]
 8003b52:	687b      	ldr	r3, [r7, #4]
 8003b54:	6a9b      	ldr	r3, [r3, #40]	@ 0x28
 8003b56:	f003 0301 	and.w	r3, r3, #1
 8003b5a:	2b00      	cmp	r3, #0
 8003b5c:	d00a      	beq.n	8003b74 <UART_AdvFeatureConfig+0x4c>
 8003b5e:	687b      	ldr	r3, [r7, #4]
 8003b60:	681b      	ldr	r3, [r3, #0]
 8003b62:	685b      	ldr	r3, [r3, #4]
 8003b64:	f423 3100 	bic.w	r1, r3, #131072	@ 0x20000
 8003b68:	687b      	ldr	r3, [r7, #4]
 8003b6a:	6ada      	ldr	r2, [r3, #44]	@ 0x2c
 8003b6c:	687b      	ldr	r3, [r7, #4]
 8003b6e:	681b      	ldr	r3, [r3, #0]
 8003b70:	430a      	orrs	r2, r1
 8003b72:	605a      	str	r2, [r3, #4]
 8003b74:	687b      	ldr	r3, [r7, #4]
 8003b76:	6a9b      	ldr	r3, [r3, #40]	@ 0x28
 8003b78:	f003 0302 	and.w	r3, r3, #2
 8003b7c:	2b00      	cmp	r3, #0
 8003b7e:	d00a      	beq.n	8003b96 <UART_AdvFeatureConfig+0x6e>
 8003b80:	687b      	ldr	r3, [r7, #4]
 8003b82:	681b      	ldr	r3, [r3, #0]
 8003b84:	685b      	ldr	r3, [r3, #4]
 8003b86:	f423 3180 	bic.w	r1, r3, #65536	@ 0x10000
 8003b8a:	687b      	ldr	r3, [r7, #4]
 8003b8c:	6b1a      	ldr	r2, [r3, #48]	@ 0x30
 8003b8e:	687b      	ldr	r3, [r7, #4]
 8003b90:	681b      	ldr	r3, [r3, #0]
 8003b92:	430a      	orrs	r2, r1
 8003b94:	605a      	str	r2, [r3, #4]
 8003b96:	687b      	ldr	r3, [r7, #4]
 8003b98:	6a9b      	ldr	r3, [r3, #40]	@ 0x28
 8003b9a:	f003 0304 	and.w	r3, r3, #4
 8003b9e:	2b00      	cmp	r3, #0
 8003ba0:	d00a      	beq.n	8003bb8 <UART_AdvFeatureConfig+0x90>
 8003ba2:	687b      	ldr	r3, [r7, #4]
 8003ba4:	681b      	ldr	r3, [r3, #0]
 8003ba6:	685b      	ldr	r3, [r3, #4]
 8003ba8:	f423 2180 	bic.w	r1, r3, #262144	@ 0x40000
 8003bac:	687b      	ldr	r3, [r7, #4]
 8003bae:	6b5a      	ldr	r2, [r3, #52]	@ 0x34
 8003bb0:	687b      	ldr	r3, [r7, #4]
 8003bb2:	681b      	ldr	r3, [r3, #0]
 8003bb4:	430a      	orrs	r2, r1
 8003bb6:	605a      	str	r2, [r3, #4]
 8003bb8:	687b      	ldr	r3, [r7, #4]
 8003bba:	6a9b      	ldr	r3, [r3, #40]	@ 0x28
 8003bbc:	f003 0310 	and.w	r3, r3, #16
 8003bc0:	2b00      	cmp	r3, #0
 8003bc2:	d00a      	beq.n	8003bda <UART_AdvFeatureConfig+0xb2>
 8003bc4:	687b      	ldr	r3, [r7, #4]
 8003bc6:	681b      	ldr	r3, [r3, #0]
 8003bc8:	689b      	ldr	r3, [r3, #8]
 8003bca:	f423 5180 	bic.w	r1, r3, #4096	@ 0x1000
 8003bce:	687b      	ldr	r3, [r7, #4]
 8003bd0:	6bda      	ldr	r2, [r3, #60]	@ 0x3c
 8003bd2:	687b      	ldr	r3, [r7, #4]
 8003bd4:	681b      	ldr	r3, [r3, #0]
 8003bd6:	430a      	orrs	r2, r1
 8003bd8:	609a      	str	r2, [r3, #8]
 8003bda:	687b      	ldr	r3, [r7, #4]
 8003bdc:	6a9b      	ldr	r3, [r3, #40]	@ 0x28
 8003bde:	f003 0320 	and.w	r3, r3, #32
 8003be2:	2b00      	cmp	r3, #0
 8003be4:	d00a      	beq.n	8003bfc <UART_AdvFeatureConfig+0xd4>
 8003be6:	687b      	ldr	r3, [r7, #4]
 8003be8:	681b      	ldr	r3, [r3, #0]
 8003bea:	689b      	ldr	r3, [r3, #8]
 8003bec:	f423 5100 	bic.w	r1, r3, #8192	@ 0x2000
 8003bf0:	687b      	ldr	r3, [r7, #4]
 8003bf2:	6c1a      	ldr	r2, [r3, #64]	@ 0x40
 8003bf4:	687b      	ldr	r3, [r7, #4]
 8003bf6:	681b      	ldr	r3, [r3, #0]
 8003bf8:	430a      	orrs	r2, r1
 8003bfa:	609a      	str	r2, [r3, #8]
 8003bfc:	687b      	ldr	r3, [r7, #4]
 8003bfe:	6a9b      	ldr	r3, [r3, #40]	@ 0x28
 8003c00:	f003 0340 	and.w	r3, r3, #64	@ 0x40
 8003c04:	2b00      	cmp	r3, #0
 8003c06:	d01a      	beq.n	8003c3e <UART_AdvFeatureConfig+0x116>
 8003c08:	687b      	ldr	r3, [r7, #4]
 8003c0a:	681b      	ldr	r3, [r3, #0]
 8003c0c:	685b      	ldr	r3, [r3, #4]
 8003c0e:	f423 1180 	bic.w	r1, r3, #1048576	@ 0x100000
 8003c12:	687b      	ldr	r3, [r7, #4]
 8003c14:	6c5a      	ldr	r2, [r3, #68]	@ 0x44
 8003c16:	687b      	ldr	r3, [r7, #4]
 8003c18:	681b      	ldr	r3, [r3, #0]
 8003c1a:	430a      	orrs	r2, r1
 8003c1c:	605a      	str	r2, [r3, #4]
 8003c1e:	687b      	ldr	r3, [r7, #4]
 8003c20:	6c5b      	ldr	r3, [r3, #68]	@ 0x44
 8003c22:	f5b3 1f80 	cmp.w	r3, #1048576	@ 0x100000
 8003c26:	d10a      	bne.n	8003c3e <UART_AdvFeatureConfig+0x116>
 8003c28:	687b      	ldr	r3, [r7, #4]
 8003c2a:	681b      	ldr	r3, [r3, #0]
 8003c2c:	685b      	ldr	r3, [r3, #4]
 8003c2e:	f423 01c0 	bic.w	r1, r3, #6291456	@ 0x600000
 8003c32:	687b      	ldr	r3, [r7, #4]
 8003c34:	6c9a      	ldr	r2, [r3, #72]	@ 0x48
 8003c36:	687b      	ldr	r3, [r7, #4]
 8003c38:	681b      	ldr	r3, [r3, #0]
 8003c3a:	430a      	orrs	r2, r1
 8003c3c:	605a      	str	r2, [r3, #4]
 8003c3e:	687b      	ldr	r3, [r7, #4]
 8003c40:	6a9b      	ldr	r3, [r3, #40]	@ 0x28
 8003c42:	f003 0380 	and.w	r3, r3, #128	@ 0x80
 8003c46:	2b00      	cmp	r3, #0
 8003c48:	d00a      	beq.n	8003c60 <UART_AdvFeatureConfig+0x138>
 8003c4a:	687b      	ldr	r3, [r7, #4]
 8003c4c:	681b      	ldr	r3, [r3, #0]
 8003c4e:	685b      	ldr	r3, [r3, #4]
 8003c50:	f423 2100 	bic.w	r1, r3, #524288	@ 0x80000
 8003c54:	687b      	ldr	r3, [r7, #4]
 8003c56:	6cda      	ldr	r2, [r3, #76]	@ 0x4c
 8003c58:	687b      	ldr	r3, [r7, #4]
 8003c5a:	681b      	ldr	r3, [r3, #0]
 8003c5c:	430a      	orrs	r2, r1
 8003c5e:	605a      	str	r2, [r3, #4]
 8003c60:	bf00      	nop
 8003c62:	370c      	adds	r7, #12
 8003c64:	46bd      	mov	sp, r7
 8003c66:	f85d 7b04 	ldr.w	r7, [sp], #4
 8003c6a:	4770      	bx	lr

08003c6c <UART_CheckIdleState>:
 8003c6c:	b580      	push	{r7, lr}
 8003c6e:	b098      	sub	sp, #96	@ 0x60
 8003c70:	af02      	add	r7, sp, #8
 8003c72:	6078      	str	r0, [r7, #4]
 8003c74:	687b      	ldr	r3, [r7, #4]
 8003c76:	2200      	movs	r2, #0
 8003c78:	f8c3 2090 	str.w	r2, [r3, #144]	@ 0x90
 8003c7c:	f7fd fcc6 	bl	800160c <HAL_GetTick>
 8003c80:	6578      	str	r0, [r7, #84]	@ 0x54
 8003c82:	687b      	ldr	r3, [r7, #4]
 8003c84:	681b      	ldr	r3, [r3, #0]
 8003c86:	681b      	ldr	r3, [r3, #0]
 8003c88:	f003 0308 	and.w	r3, r3, #8
 8003c8c:	2b08      	cmp	r3, #8
 8003c8e:	d12f      	bne.n	8003cf0 <UART_CheckIdleState+0x84>
 8003c90:	f06f 437e 	mvn.w	r3, #4261412864	@ 0xfe000000
 8003c94:	9300      	str	r3, [sp, #0]
 8003c96:	6d7b      	ldr	r3, [r7, #84]	@ 0x54
 8003c98:	2200      	movs	r2, #0
 8003c9a:	f44f 1100 	mov.w	r1, #2097152	@ 0x200000
 8003c9e:	6878      	ldr	r0, [r7, #4]
 8003ca0:	f000 f88e 	bl	8003dc0 <UART_WaitOnFlagUntilTimeout>
 8003ca4:	4603      	mov	r3, r0
 8003ca6:	2b00      	cmp	r3, #0
 8003ca8:	d022      	beq.n	8003cf0 <UART_CheckIdleState+0x84>
 8003caa:	687b      	ldr	r3, [r7, #4]
 8003cac:	681b      	ldr	r3, [r3, #0]
 8003cae:	63bb      	str	r3, [r7, #56]	@ 0x38
 8003cb0:	6bbb      	ldr	r3, [r7, #56]	@ 0x38
 8003cb2:	e853 3f00 	ldrex	r3, [r3]
 8003cb6:	637b      	str	r3, [r7, #52]	@ 0x34
 8003cb8:	6b7b      	ldr	r3, [r7, #52]	@ 0x34
 8003cba:	f023 0380 	bic.w	r3, r3, #128	@ 0x80
 8003cbe:	653b      	str	r3, [r7, #80]	@ 0x50
 8003cc0:	687b      	ldr	r3, [r7, #4]
 8003cc2:	681b      	ldr	r3, [r3, #0]
 8003cc4:	461a      	mov	r2, r3
 8003cc6:	6d3b      	ldr	r3, [r7, #80]	@ 0x50
 8003cc8:	647b      	str	r3, [r7, #68]	@ 0x44
 8003cca:	643a      	str	r2, [r7, #64]	@ 0x40
 8003ccc:	6c39      	ldr	r1, [r7, #64]	@ 0x40
 8003cce:	6c7a      	ldr	r2, [r7, #68]	@ 0x44
 8003cd0:	e841 2300 	strex	r3, r2, [r1]
 8003cd4:	63fb      	str	r3, [r7, #60]	@ 0x3c
 8003cd6:	6bfb      	ldr	r3, [r7, #60]	@ 0x3c
 8003cd8:	2b00      	cmp	r3, #0
 8003cda:	d1e6      	bne.n	8003caa <UART_CheckIdleState+0x3e>
 8003cdc:	687b      	ldr	r3, [r7, #4]
 8003cde:	2220      	movs	r2, #32
 8003ce0:	f8c3 2088 	str.w	r2, [r3, #136]	@ 0x88
 8003ce4:	687b      	ldr	r3, [r7, #4]
 8003ce6:	2200      	movs	r2, #0
 8003ce8:	f883 2084 	strb.w	r2, [r3, #132]	@ 0x84
 8003cec:	2303      	movs	r3, #3
 8003cee:	e063      	b.n	8003db8 <UART_CheckIdleState+0x14c>
 8003cf0:	687b      	ldr	r3, [r7, #4]
 8003cf2:	681b      	ldr	r3, [r3, #0]
 8003cf4:	681b      	ldr	r3, [r3, #0]
 8003cf6:	f003 0304 	and.w	r3, r3, #4
 8003cfa:	2b04      	cmp	r3, #4
 8003cfc:	d149      	bne.n	8003d92 <UART_CheckIdleState+0x126>
 8003cfe:	f06f 437e 	mvn.w	r3, #4261412864	@ 0xfe000000
 8003d02:	9300      	str	r3, [sp, #0]
 8003d04:	6d7b      	ldr	r3, [r7, #84]	@ 0x54
 8003d06:	2200      	movs	r2, #0
 8003d08:	f44f 0180 	mov.w	r1, #4194304	@ 0x400000
 8003d0c:	6878      	ldr	r0, [r7, #4]
 8003d0e:	f000 f857 	bl	8003dc0 <UART_WaitOnFlagUntilTimeout>
 8003d12:	4603      	mov	r3, r0
 8003d14:	2b00      	cmp	r3, #0
 8003d16:	d03c      	beq.n	8003d92 <UART_CheckIdleState+0x126>
 8003d18:	687b      	ldr	r3, [r7, #4]
 8003d1a:	681b      	ldr	r3, [r3, #0]
 8003d1c:	627b      	str	r3, [r7, #36]	@ 0x24
 8003d1e:	6a7b      	ldr	r3, [r7, #36]	@ 0x24
 8003d20:	e853 3f00 	ldrex	r3, [r3]
 8003d24:	623b      	str	r3, [r7, #32]
 8003d26:	6a3b      	ldr	r3, [r7, #32]
 8003d28:	f423 7390 	bic.w	r3, r3, #288	@ 0x120
 8003d2c:	64fb      	str	r3, [r7, #76]	@ 0x4c
 8003d2e:	687b      	ldr	r3, [r7, #4]
 8003d30:	681b      	ldr	r3, [r3, #0]
 8003d32:	461a      	mov	r2, r3
 8003d34:	6cfb      	ldr	r3, [r7, #76]	@ 0x4c
 8003d36:	633b      	str	r3, [r7, #48]	@ 0x30
 8003d38:	62fa      	str	r2, [r7, #44]	@ 0x2c
 8003d3a:	6af9      	ldr	r1, [r7, #44]	@ 0x2c
 8003d3c:	6b3a      	ldr	r2, [r7, #48]	@ 0x30
 8003d3e:	e841 2300 	strex	r3, r2, [r1]
 8003d42:	62bb      	str	r3, [r7, #40]	@ 0x28
 8003d44:	6abb      	ldr	r3, [r7, #40]	@ 0x28
 8003d46:	2b00      	cmp	r3, #0
 8003d48:	d1e6      	bne.n	8003d18 <UART_CheckIdleState+0xac>
 8003d4a:	687b      	ldr	r3, [r7, #4]
 8003d4c:	681b      	ldr	r3, [r3, #0]
 8003d4e:	3308      	adds	r3, #8
 8003d50:	613b      	str	r3, [r7, #16]
 8003d52:	693b      	ldr	r3, [r7, #16]
 8003d54:	e853 3f00 	ldrex	r3, [r3]
 8003d58:	60fb      	str	r3, [r7, #12]
 8003d5a:	68fb      	ldr	r3, [r7, #12]
 8003d5c:	f023 0301 	bic.w	r3, r3, #1
 8003d60:	64bb      	str	r3, [r7, #72]	@ 0x48
 8003d62:	687b      	ldr	r3, [r7, #4]
 8003d64:	681b      	ldr	r3, [r3, #0]
 8003d66:	3308      	adds	r3, #8
 8003d68:	6cba      	ldr	r2, [r7, #72]	@ 0x48
 8003d6a:	61fa      	str	r2, [r7, #28]
 8003d6c:	61bb      	str	r3, [r7, #24]
 8003d6e:	69b9      	ldr	r1, [r7, #24]
 8003d70:	69fa      	ldr	r2, [r7, #28]
 8003d72:	e841 2300 	strex	r3, r2, [r1]
 8003d76:	617b      	str	r3, [r7, #20]
 8003d78:	697b      	ldr	r3, [r7, #20]
 8003d7a:	2b00      	cmp	r3, #0
 8003d7c:	d1e5      	bne.n	8003d4a <UART_CheckIdleState+0xde>
 8003d7e:	687b      	ldr	r3, [r7, #4]
 8003d80:	2220      	movs	r2, #32
 8003d82:	f8c3 208c 	str.w	r2, [r3, #140]	@ 0x8c
 8003d86:	687b      	ldr	r3, [r7, #4]
 8003d88:	2200      	movs	r2, #0
 8003d8a:	f883 2084 	strb.w	r2, [r3, #132]	@ 0x84
 8003d8e:	2303      	movs	r3, #3
 8003d90:	e012      	b.n	8003db8 <UART_CheckIdleState+0x14c>
 8003d92:	687b      	ldr	r3, [r7, #4]
 8003d94:	2220      	movs	r2, #32
 8003d96:	f8c3 2088 	str.w	r2, [r3, #136]	@ 0x88
 8003d9a:	687b      	ldr	r3, [r7, #4]
 8003d9c:	2220      	movs	r2, #32
 8003d9e:	f8c3 208c 	str.w	r2, [r3, #140]	@ 0x8c
 8003da2:	687b      	ldr	r3, [r7, #4]
 8003da4:	2200      	movs	r2, #0
 8003da6:	66da      	str	r2, [r3, #108]	@ 0x6c
 8003da8:	687b      	ldr	r3, [r7, #4]
 8003daa:	2200      	movs	r2, #0
 8003dac:	671a      	str	r2, [r3, #112]	@ 0x70
 8003dae:	687b      	ldr	r3, [r7, #4]
 8003db0:	2200      	movs	r2, #0
 8003db2:	f883 2084 	strb.w	r2, [r3, #132]	@ 0x84
 8003db6:	2300      	movs	r3, #0
 8003db8:	4618      	mov	r0, r3
 8003dba:	3758      	adds	r7, #88	@ 0x58
 8003dbc:	46bd      	mov	sp, r7
 8003dbe:	bd80      	pop	{r7, pc}

08003dc0 <UART_WaitOnFlagUntilTimeout>:
 8003dc0:	b580      	push	{r7, lr}
 8003dc2:	b084      	sub	sp, #16
 8003dc4:	af00      	add	r7, sp, #0
 8003dc6:	60f8      	str	r0, [r7, #12]
 8003dc8:	60b9      	str	r1, [r7, #8]
 8003dca:	603b      	str	r3, [r7, #0]
 8003dcc:	4613      	mov	r3, r2
 8003dce:	71fb      	strb	r3, [r7, #7]
 8003dd0:	e04f      	b.n	8003e72 <UART_WaitOnFlagUntilTimeout+0xb2>
 8003dd2:	69bb      	ldr	r3, [r7, #24]
 8003dd4:	f1b3 3fff 	cmp.w	r3, #4294967295	@ 0xffffffff
 8003dd8:	d04b      	beq.n	8003e72 <UART_WaitOnFlagUntilTimeout+0xb2>
 8003dda:	f7fd fc17 	bl	800160c <HAL_GetTick>
 8003dde:	4602      	mov	r2, r0
 8003de0:	683b      	ldr	r3, [r7, #0]
 8003de2:	1ad3      	subs	r3, r2, r3
 8003de4:	69ba      	ldr	r2, [r7, #24]
 8003de6:	429a      	cmp	r2, r3
 8003de8:	d302      	bcc.n	8003df0 <UART_WaitOnFlagUntilTimeout+0x30>
 8003dea:	69bb      	ldr	r3, [r7, #24]
 8003dec:	2b00      	cmp	r3, #0
 8003dee:	d101      	bne.n	8003df4 <UART_WaitOnFlagUntilTimeout+0x34>
 8003df0:	2303      	movs	r3, #3
 8003df2:	e04e      	b.n	8003e92 <UART_WaitOnFlagUntilTimeout+0xd2>
 8003df4:	68fb      	ldr	r3, [r7, #12]
 8003df6:	681b      	ldr	r3, [r3, #0]
 8003df8:	681b      	ldr	r3, [r3, #0]
 8003dfa:	f003 0304 	and.w	r3, r3, #4
 8003dfe:	2b00      	cmp	r3, #0
 8003e00:	d037      	beq.n	8003e72 <UART_WaitOnFlagUntilTimeout+0xb2>
 8003e02:	68bb      	ldr	r3, [r7, #8]
 8003e04:	2b80      	cmp	r3, #128	@ 0x80
 8003e06:	d034      	beq.n	8003e72 <UART_WaitOnFlagUntilTimeout+0xb2>
 8003e08:	68bb      	ldr	r3, [r7, #8]
 8003e0a:	2b40      	cmp	r3, #64	@ 0x40
 8003e0c:	d031      	beq.n	8003e72 <UART_WaitOnFlagUntilTimeout+0xb2>
 8003e0e:	68fb      	ldr	r3, [r7, #12]
 8003e10:	681b      	ldr	r3, [r3, #0]
 8003e12:	69db      	ldr	r3, [r3, #28]
 8003e14:	f003 0308 	and.w	r3, r3, #8
 8003e18:	2b08      	cmp	r3, #8
 8003e1a:	d110      	bne.n	8003e3e <UART_WaitOnFlagUntilTimeout+0x7e>
 8003e1c:	68fb      	ldr	r3, [r7, #12]
 8003e1e:	681b      	ldr	r3, [r3, #0]
 8003e20:	2208      	movs	r2, #8
 8003e22:	621a      	str	r2, [r3, #32]
 8003e24:	68f8      	ldr	r0, [r7, #12]
 8003e26:	f000 f838 	bl	8003e9a <UART_EndRxTransfer>
 8003e2a:	68fb      	ldr	r3, [r7, #12]
 8003e2c:	2208      	movs	r2, #8
 8003e2e:	f8c3 2090 	str.w	r2, [r3, #144]	@ 0x90
 8003e32:	68fb      	ldr	r3, [r7, #12]
 8003e34:	2200      	movs	r2, #0
 8003e36:	f883 2084 	strb.w	r2, [r3, #132]	@ 0x84
 8003e3a:	2301      	movs	r3, #1
 8003e3c:	e029      	b.n	8003e92 <UART_WaitOnFlagUntilTimeout+0xd2>
 8003e3e:	68fb      	ldr	r3, [r7, #12]
 8003e40:	681b      	ldr	r3, [r3, #0]
 8003e42:	69db      	ldr	r3, [r3, #28]
 8003e44:	f403 6300 	and.w	r3, r3, #2048	@ 0x800
 8003e48:	f5b3 6f00 	cmp.w	r3, #2048	@ 0x800
 8003e4c:	d111      	bne.n	8003e72 <UART_WaitOnFlagUntilTimeout+0xb2>
 8003e4e:	68fb      	ldr	r3, [r7, #12]
 8003e50:	681b      	ldr	r3, [r3, #0]
 8003e52:	f44f 6200 	mov.w	r2, #2048	@ 0x800
 8003e56:	621a      	str	r2, [r3, #32]
 8003e58:	68f8      	ldr	r0, [r7, #12]
 8003e5a:	f000 f81e 	bl	8003e9a <UART_EndRxTransfer>
 8003e5e:	68fb      	ldr	r3, [r7, #12]
 8003e60:	2220      	movs	r2, #32
 8003e62:	f8c3 2090 	str.w	r2, [r3, #144]	@ 0x90
 8003e66:	68fb      	ldr	r3, [r7, #12]
 8003e68:	2200      	movs	r2, #0
 8003e6a:	f883 2084 	strb.w	r2, [r3, #132]	@ 0x84
 8003e6e:	2303      	movs	r3, #3
 8003e70:	e00f      	b.n	8003e92 <UART_WaitOnFlagUntilTimeout+0xd2>
 8003e72:	68fb      	ldr	r3, [r7, #12]
 8003e74:	681b      	ldr	r3, [r3, #0]
 8003e76:	69da      	ldr	r2, [r3, #28]
 8003e78:	68bb      	ldr	r3, [r7, #8]
 8003e7a:	4013      	ands	r3, r2
 8003e7c:	68ba      	ldr	r2, [r7, #8]
 8003e7e:	429a      	cmp	r2, r3
 8003e80:	bf0c      	ite	eq
 8003e82:	2301      	moveq	r3, #1
 8003e84:	2300      	movne	r3, #0
 8003e86:	b2db      	uxtb	r3, r3
 8003e88:	461a      	mov	r2, r3
 8003e8a:	79fb      	ldrb	r3, [r7, #7]
 8003e8c:	429a      	cmp	r2, r3
 8003e8e:	d0a0      	beq.n	8003dd2 <UART_WaitOnFlagUntilTimeout+0x12>
 8003e90:	2300      	movs	r3, #0
 8003e92:	4618      	mov	r0, r3
 8003e94:	3710      	adds	r7, #16
 8003e96:	46bd      	mov	sp, r7
 8003e98:	bd80      	pop	{r7, pc}

08003e9a <UART_EndRxTransfer>:
 8003e9a:	b480      	push	{r7}
 8003e9c:	b095      	sub	sp, #84	@ 0x54
 8003e9e:	af00      	add	r7, sp, #0
 8003ea0:	6078      	str	r0, [r7, #4]
 8003ea2:	687b      	ldr	r3, [r7, #4]
 8003ea4:	681b      	ldr	r3, [r3, #0]
 8003ea6:	637b      	str	r3, [r7, #52]	@ 0x34
 8003ea8:	6b7b      	ldr	r3, [r7, #52]	@ 0x34
 8003eaa:	e853 3f00 	ldrex	r3, [r3]
 8003eae:	633b      	str	r3, [r7, #48]	@ 0x30
 8003eb0:	6b3b      	ldr	r3, [r7, #48]	@ 0x30
 8003eb2:	f423 7390 	bic.w	r3, r3, #288	@ 0x120
 8003eb6:	64fb      	str	r3, [r7, #76]	@ 0x4c
 8003eb8:	687b      	ldr	r3, [r7, #4]
 8003eba:	681b      	ldr	r3, [r3, #0]
 8003ebc:	461a      	mov	r2, r3
 8003ebe:	6cfb      	ldr	r3, [r7, #76]	@ 0x4c
 8003ec0:	643b      	str	r3, [r7, #64]	@ 0x40
 8003ec2:	63fa      	str	r2, [r7, #60]	@ 0x3c
 8003ec4:	6bf9      	ldr	r1, [r7, #60]	@ 0x3c
 8003ec6:	6c3a      	ldr	r2, [r7, #64]	@ 0x40
 8003ec8:	e841 2300 	strex	r3, r2, [r1]
 8003ecc:	63bb      	str	r3, [r7, #56]	@ 0x38
 8003ece:	6bbb      	ldr	r3, [r7, #56]	@ 0x38
 8003ed0:	2b00      	cmp	r3, #0
 8003ed2:	d1e6      	bne.n	8003ea2 <UART_EndRxTransfer+0x8>
 8003ed4:	687b      	ldr	r3, [r7, #4]
 8003ed6:	681b      	ldr	r3, [r3, #0]
 8003ed8:	3308      	adds	r3, #8
 8003eda:	623b      	str	r3, [r7, #32]
 8003edc:	6a3b      	ldr	r3, [r7, #32]
 8003ede:	e853 3f00 	ldrex	r3, [r3]
 8003ee2:	61fb      	str	r3, [r7, #28]
 8003ee4:	69fb      	ldr	r3, [r7, #28]
 8003ee6:	f023 5380 	bic.w	r3, r3, #268435456	@ 0x10000000
 8003eea:	f023 0301 	bic.w	r3, r3, #1
 8003eee:	64bb      	str	r3, [r7, #72]	@ 0x48
 8003ef0:	687b      	ldr	r3, [r7, #4]
 8003ef2:	681b      	ldr	r3, [r3, #0]
 8003ef4:	3308      	adds	r3, #8
 8003ef6:	6cba      	ldr	r2, [r7, #72]	@ 0x48
 8003ef8:	62fa      	str	r2, [r7, #44]	@ 0x2c
 8003efa:	62bb      	str	r3, [r7, #40]	@ 0x28
 8003efc:	6ab9      	ldr	r1, [r7, #40]	@ 0x28
 8003efe:	6afa      	ldr	r2, [r7, #44]	@ 0x2c
 8003f00:	e841 2300 	strex	r3, r2, [r1]
 8003f04:	627b      	str	r3, [r7, #36]	@ 0x24
 8003f06:	6a7b      	ldr	r3, [r7, #36]	@ 0x24
 8003f08:	2b00      	cmp	r3, #0
 8003f0a:	d1e3      	bne.n	8003ed4 <UART_EndRxTransfer+0x3a>
 8003f0c:	687b      	ldr	r3, [r7, #4]
 8003f0e:	6edb      	ldr	r3, [r3, #108]	@ 0x6c
 8003f10:	2b01      	cmp	r3, #1
 8003f12:	d118      	bne.n	8003f46 <UART_EndRxTransfer+0xac>
 8003f14:	687b      	ldr	r3, [r7, #4]
 8003f16:	681b      	ldr	r3, [r3, #0]
 8003f18:	60fb      	str	r3, [r7, #12]
 8003f1a:	68fb      	ldr	r3, [r7, #12]
 8003f1c:	e853 3f00 	ldrex	r3, [r3]
 8003f20:	60bb      	str	r3, [r7, #8]
 8003f22:	68bb      	ldr	r3, [r7, #8]
 8003f24:	f023 0310 	bic.w	r3, r3, #16
 8003f28:	647b      	str	r3, [r7, #68]	@ 0x44
 8003f2a:	687b      	ldr	r3, [r7, #4]
 8003f2c:	681b      	ldr	r3, [r3, #0]
 8003f2e:	461a      	mov	r2, r3
 8003f30:	6c7b      	ldr	r3, [r7, #68]	@ 0x44
 8003f32:	61bb      	str	r3, [r7, #24]
 8003f34:	617a      	str	r2, [r7, #20]
 8003f36:	6979      	ldr	r1, [r7, #20]
 8003f38:	69ba      	ldr	r2, [r7, #24]
 8003f3a:	e841 2300 	strex	r3, r2, [r1]
 8003f3e:	613b      	str	r3, [r7, #16]
 8003f40:	693b      	ldr	r3, [r7, #16]
 8003f42:	2b00      	cmp	r3, #0
 8003f44:	d1e6      	bne.n	8003f14 <UART_EndRxTransfer+0x7a>
 8003f46:	687b      	ldr	r3, [r7, #4]
 8003f48:	2220      	movs	r2, #32
 8003f4a:	f8c3 208c 	str.w	r2, [r3, #140]	@ 0x8c
 8003f4e:	687b      	ldr	r3, [r7, #4]
 8003f50:	2200      	movs	r2, #0
 8003f52:	66da      	str	r2, [r3, #108]	@ 0x6c
 8003f54:	687b      	ldr	r3, [r7, #4]
 8003f56:	2200      	movs	r2, #0
 8003f58:	675a      	str	r2, [r3, #116]	@ 0x74
 8003f5a:	bf00      	nop
 8003f5c:	3754      	adds	r7, #84	@ 0x54
 8003f5e:	46bd      	mov	sp, r7
 8003f60:	f85d 7b04 	ldr.w	r7, [sp], #4
 8003f64:	4770      	bx	lr

08003f66 <HAL_UARTEx_DisableFifoMode>:
 8003f66:	b480      	push	{r7}
 8003f68:	b085      	sub	sp, #20
 8003f6a:	af00      	add	r7, sp, #0
 8003f6c:	6078      	str	r0, [r7, #4]
 8003f6e:	687b      	ldr	r3, [r7, #4]
 8003f70:	f893 3084 	ldrb.w	r3, [r3, #132]	@ 0x84
 8003f74:	2b01      	cmp	r3, #1
 8003f76:	d101      	bne.n	8003f7c <HAL_UARTEx_DisableFifoMode+0x16>
 8003f78:	2302      	movs	r3, #2
 8003f7a:	e027      	b.n	8003fcc <HAL_UARTEx_DisableFifoMode+0x66>
 8003f7c:	687b      	ldr	r3, [r7, #4]
 8003f7e:	2201      	movs	r2, #1
 8003f80:	f883 2084 	strb.w	r2, [r3, #132]	@ 0x84
 8003f84:	687b      	ldr	r3, [r7, #4]
 8003f86:	2224      	movs	r2, #36	@ 0x24
 8003f88:	f8c3 2088 	str.w	r2, [r3, #136]	@ 0x88
 8003f8c:	687b      	ldr	r3, [r7, #4]
 8003f8e:	681b      	ldr	r3, [r3, #0]
 8003f90:	681b      	ldr	r3, [r3, #0]
 8003f92:	60fb      	str	r3, [r7, #12]
 8003f94:	687b      	ldr	r3, [r7, #4]
 8003f96:	681b      	ldr	r3, [r3, #0]
 8003f98:	681a      	ldr	r2, [r3, #0]
 8003f9a:	687b      	ldr	r3, [r7, #4]
 8003f9c:	681b      	ldr	r3, [r3, #0]
 8003f9e:	f022 0201 	bic.w	r2, r2, #1
 8003fa2:	601a      	str	r2, [r3, #0]
 8003fa4:	68fb      	ldr	r3, [r7, #12]
 8003fa6:	f023 5300 	bic.w	r3, r3, #536870912	@ 0x20000000
 8003faa:	60fb      	str	r3, [r7, #12]
 8003fac:	687b      	ldr	r3, [r7, #4]
 8003fae:	2200      	movs	r2, #0
 8003fb0:	665a      	str	r2, [r3, #100]	@ 0x64
 8003fb2:	687b      	ldr	r3, [r7, #4]
 8003fb4:	681b      	ldr	r3, [r3, #0]
 8003fb6:	68fa      	ldr	r2, [r7, #12]
 8003fb8:	601a      	str	r2, [r3, #0]
 8003fba:	687b      	ldr	r3, [r7, #4]
 8003fbc:	2220      	movs	r2, #32
 8003fbe:	f8c3 2088 	str.w	r2, [r3, #136]	@ 0x88
 8003fc2:	687b      	ldr	r3, [r7, #4]
 8003fc4:	2200      	movs	r2, #0
 8003fc6:	f883 2084 	strb.w	r2, [r3, #132]	@ 0x84
 8003fca:	2300      	movs	r3, #0
 8003fcc:	4618      	mov	r0, r3
 8003fce:	3714      	adds	r7, #20
 8003fd0:	46bd      	mov	sp, r7
 8003fd2:	f85d 7b04 	ldr.w	r7, [sp], #4
 8003fd6:	4770      	bx	lr

08003fd8 <HAL_UARTEx_SetTxFifoThreshold>:
 8003fd8:	b580      	push	{r7, lr}
 8003fda:	b084      	sub	sp, #16
 8003fdc:	af00      	add	r7, sp, #0
 8003fde:	6078      	str	r0, [r7, #4]
 8003fe0:	6039      	str	r1, [r7, #0]
 8003fe2:	687b      	ldr	r3, [r7, #4]
 8003fe4:	f893 3084 	ldrb.w	r3, [r3, #132]	@ 0x84
 8003fe8:	2b01      	cmp	r3, #1
 8003fea:	d101      	bne.n	8003ff0 <HAL_UARTEx_SetTxFifoThreshold+0x18>
 8003fec:	2302      	movs	r3, #2
 8003fee:	e02d      	b.n	800404c <HAL_UARTEx_SetTxFifoThreshold+0x74>
 8003ff0:	687b      	ldr	r3, [r7, #4]
 8003ff2:	2201      	movs	r2, #1
 8003ff4:	f883 2084 	strb.w	r2, [r3, #132]	@ 0x84
 8003ff8:	687b      	ldr	r3, [r7, #4]
 8003ffa:	2224      	movs	r2, #36	@ 0x24
 8003ffc:	f8c3 2088 	str.w	r2, [r3, #136]	@ 0x88
 8004000:	687b      	ldr	r3, [r7, #4]
 8004002:	681b      	ldr	r3, [r3, #0]
 8004004:	681b      	ldr	r3, [r3, #0]
 8004006:	60fb      	str	r3, [r7, #12]
 8004008:	687b      	ldr	r3, [r7, #4]
 800400a:	681b      	ldr	r3, [r3, #0]
 800400c:	681a      	ldr	r2, [r3, #0]
 800400e:	687b      	ldr	r3, [r7, #4]
 8004010:	681b      	ldr	r3, [r3, #0]
 8004012:	f022 0201 	bic.w	r2, r2, #1
 8004016:	601a      	str	r2, [r3, #0]
 8004018:	687b      	ldr	r3, [r7, #4]
 800401a:	681b      	ldr	r3, [r3, #0]
 800401c:	689b      	ldr	r3, [r3, #8]
 800401e:	f023 4160 	bic.w	r1, r3, #3758096384	@ 0xe0000000
 8004022:	687b      	ldr	r3, [r7, #4]
 8004024:	681b      	ldr	r3, [r3, #0]
 8004026:	683a      	ldr	r2, [r7, #0]
 8004028:	430a      	orrs	r2, r1
 800402a:	609a      	str	r2, [r3, #8]
 800402c:	6878      	ldr	r0, [r7, #4]
 800402e:	f000 f84f 	bl	80040d0 <UARTEx_SetNbDataToProcess>
 8004032:	687b      	ldr	r3, [r7, #4]
 8004034:	681b      	ldr	r3, [r3, #0]
 8004036:	68fa      	ldr	r2, [r7, #12]
 8004038:	601a      	str	r2, [r3, #0]
 800403a:	687b      	ldr	r3, [r7, #4]
 800403c:	2220      	movs	r2, #32
 800403e:	f8c3 2088 	str.w	r2, [r3, #136]	@ 0x88
 8004042:	687b      	ldr	r3, [r7, #4]
 8004044:	2200      	movs	r2, #0
 8004046:	f883 2084 	strb.w	r2, [r3, #132]	@ 0x84
 800404a:	2300      	movs	r3, #0
 800404c:	4618      	mov	r0, r3
 800404e:	3710      	adds	r7, #16
 8004050:	46bd      	mov	sp, r7
 8004052:	bd80      	pop	{r7, pc}

08004054 <HAL_UARTEx_SetRxFifoThreshold>:
 8004054:	b580      	push	{r7, lr}
 8004056:	b084      	sub	sp, #16
 8004058:	af00      	add	r7, sp, #0
 800405a:	6078      	str	r0, [r7, #4]
 800405c:	6039      	str	r1, [r7, #0]
 800405e:	687b      	ldr	r3, [r7, #4]
 8004060:	f893 3084 	ldrb.w	r3, [r3, #132]	@ 0x84
 8004064:	2b01      	cmp	r3, #1
 8004066:	d101      	bne.n	800406c <HAL_UARTEx_SetRxFifoThreshold+0x18>
 8004068:	2302      	movs	r3, #2
 800406a:	e02d      	b.n	80040c8 <HAL_UARTEx_SetRxFifoThreshold+0x74>
 800406c:	687b      	ldr	r3, [r7, #4]
 800406e:	2201      	movs	r2, #1
 8004070:	f883 2084 	strb.w	r2, [r3, #132]	@ 0x84
 8004074:	687b      	ldr	r3, [r7, #4]
 8004076:	2224      	movs	r2, #36	@ 0x24
 8004078:	f8c3 2088 	str.w	r2, [r3, #136]	@ 0x88
 800407c:	687b      	ldr	r3, [r7, #4]
 800407e:	681b      	ldr	r3, [r3, #0]
 8004080:	681b      	ldr	r3, [r3, #0]
 8004082:	60fb      	str	r3, [r7, #12]
 8004084:	687b      	ldr	r3, [r7, #4]
 8004086:	681b      	ldr	r3, [r3, #0]
 8004088:	681a      	ldr	r2, [r3, #0]
 800408a:	687b      	ldr	r3, [r7, #4]
 800408c:	681b      	ldr	r3, [r3, #0]
 800408e:	f022 0201 	bic.w	r2, r2, #1
 8004092:	601a      	str	r2, [r3, #0]
 8004094:	687b      	ldr	r3, [r7, #4]
 8004096:	681b      	ldr	r3, [r3, #0]
 8004098:	689b      	ldr	r3, [r3, #8]
 800409a:	f023 6160 	bic.w	r1, r3, #234881024	@ 0xe000000
 800409e:	687b      	ldr	r3, [r7, #4]
 80040a0:	681b      	ldr	r3, [r3, #0]
 80040a2:	683a      	ldr	r2, [r7, #0]
 80040a4:	430a      	orrs	r2, r1
 80040a6:	609a      	str	r2, [r3, #8]
 80040a8:	6878      	ldr	r0, [r7, #4]
 80040aa:	f000 f811 	bl	80040d0 <UARTEx_SetNbDataToProcess>
 80040ae:	687b      	ldr	r3, [r7, #4]
 80040b0:	681b      	ldr	r3, [r3, #0]
 80040b2:	68fa      	ldr	r2, [r7, #12]
 80040b4:	601a      	str	r2, [r3, #0]
 80040b6:	687b      	ldr	r3, [r7, #4]
 80040b8:	2220      	movs	r2, #32
 80040ba:	f8c3 2088 	str.w	r2, [r3, #136]	@ 0x88
 80040be:	687b      	ldr	r3, [r7, #4]
 80040c0:	2200      	movs	r2, #0
 80040c2:	f883 2084 	strb.w	r2, [r3, #132]	@ 0x84
 80040c6:	2300      	movs	r3, #0
 80040c8:	4618      	mov	r0, r3
 80040ca:	3710      	adds	r7, #16
 80040cc:	46bd      	mov	sp, r7
 80040ce:	bd80      	pop	{r7, pc}

080040d0 <UARTEx_SetNbDataToProcess>:
 80040d0:	b480      	push	{r7}
 80040d2:	b085      	sub	sp, #20
 80040d4:	af00      	add	r7, sp, #0
 80040d6:	6078      	str	r0, [r7, #4]
 80040d8:	687b      	ldr	r3, [r7, #4]
 80040da:	6e5b      	ldr	r3, [r3, #100]	@ 0x64
 80040dc:	2b00      	cmp	r3, #0
 80040de:	d108      	bne.n	80040f2 <UARTEx_SetNbDataToProcess+0x22>
 80040e0:	687b      	ldr	r3, [r7, #4]
 80040e2:	2201      	movs	r2, #1
 80040e4:	f8a3 206a 	strh.w	r2, [r3, #106]	@ 0x6a
 80040e8:	687b      	ldr	r3, [r7, #4]
 80040ea:	2201      	movs	r2, #1
 80040ec:	f8a3 2068 	strh.w	r2, [r3, #104]	@ 0x68
 80040f0:	e031      	b.n	8004156 <UARTEx_SetNbDataToProcess+0x86>
 80040f2:	2308      	movs	r3, #8
 80040f4:	73fb      	strb	r3, [r7, #15]
 80040f6:	2308      	movs	r3, #8
 80040f8:	73bb      	strb	r3, [r7, #14]
 80040fa:	687b      	ldr	r3, [r7, #4]
 80040fc:	681b      	ldr	r3, [r3, #0]
 80040fe:	689b      	ldr	r3, [r3, #8]
 8004100:	0e5b      	lsrs	r3, r3, #25
 8004102:	b2db      	uxtb	r3, r3
 8004104:	f003 0307 	and.w	r3, r3, #7
 8004108:	737b      	strb	r3, [r7, #13]
 800410a:	687b      	ldr	r3, [r7, #4]
 800410c:	681b      	ldr	r3, [r3, #0]
 800410e:	689b      	ldr	r3, [r3, #8]
 8004110:	0f5b      	lsrs	r3, r3, #29
 8004112:	b2db      	uxtb	r3, r3
 8004114:	f003 0307 	and.w	r3, r3, #7
 8004118:	733b      	strb	r3, [r7, #12]
 800411a:	7bbb      	ldrb	r3, [r7, #14]
 800411c:	7b3a      	ldrb	r2, [r7, #12]
 800411e:	4911      	ldr	r1, [pc, #68]	@ (8004164 <UARTEx_SetNbDataToProcess+0x94>)
 8004120:	5c8a      	ldrb	r2, [r1, r2]
 8004122:	fb02 f303 	mul.w	r3, r2, r3
 8004126:	7b3a      	ldrb	r2, [r7, #12]
 8004128:	490f      	ldr	r1, [pc, #60]	@ (8004168 <UARTEx_SetNbDataToProcess+0x98>)
 800412a:	5c8a      	ldrb	r2, [r1, r2]
 800412c:	fb93 f3f2 	sdiv	r3, r3, r2
 8004130:	b29a      	uxth	r2, r3
 8004132:	687b      	ldr	r3, [r7, #4]
 8004134:	f8a3 206a 	strh.w	r2, [r3, #106]	@ 0x6a
 8004138:	7bfb      	ldrb	r3, [r7, #15]
 800413a:	7b7a      	ldrb	r2, [r7, #13]
 800413c:	4909      	ldr	r1, [pc, #36]	@ (8004164 <UARTEx_SetNbDataToProcess+0x94>)
 800413e:	5c8a      	ldrb	r2, [r1, r2]
 8004140:	fb02 f303 	mul.w	r3, r2, r3
 8004144:	7b7a      	ldrb	r2, [r7, #13]
 8004146:	4908      	ldr	r1, [pc, #32]	@ (8004168 <UARTEx_SetNbDataToProcess+0x98>)
 8004148:	5c8a      	ldrb	r2, [r1, r2]
 800414a:	fb93 f3f2 	sdiv	r3, r3, r2
 800414e:	b29a      	uxth	r2, r3
 8004150:	687b      	ldr	r3, [r7, #4]
 8004152:	f8a3 2068 	strh.w	r2, [r3, #104]	@ 0x68
 8004156:	bf00      	nop
 8004158:	3714      	adds	r7, #20
 800415a:	46bd      	mov	sp, r7
 800415c:	f85d 7b04 	ldr.w	r7, [sp], #4
 8004160:	4770      	bx	lr
 8004162:	bf00      	nop
 8004164:	08004bc4 	.word	0x08004bc4
 8004168:	08004bcc 	.word	0x08004bcc

0800416c <siprintf>:
 800416c:	b40e      	push	{r1, r2, r3}
 800416e:	b510      	push	{r4, lr}
 8004170:	b09d      	sub	sp, #116	@ 0x74
 8004172:	ab1f      	add	r3, sp, #124	@ 0x7c
 8004174:	9002      	str	r0, [sp, #8]
 8004176:	9006      	str	r0, [sp, #24]
 8004178:	f06f 4100 	mvn.w	r1, #2147483648	@ 0x80000000
 800417c:	480a      	ldr	r0, [pc, #40]	@ (80041a8 <siprintf+0x3c>)
 800417e:	9107      	str	r1, [sp, #28]
 8004180:	9104      	str	r1, [sp, #16]
 8004182:	490a      	ldr	r1, [pc, #40]	@ (80041ac <siprintf+0x40>)
 8004184:	f853 2b04 	ldr.w	r2, [r3], #4
 8004188:	9105      	str	r1, [sp, #20]
 800418a:	2400      	movs	r4, #0
 800418c:	a902      	add	r1, sp, #8
 800418e:	6800      	ldr	r0, [r0, #0]
 8004190:	9301      	str	r3, [sp, #4]
 8004192:	941b      	str	r4, [sp, #108]	@ 0x6c
 8004194:	f000 f9a2 	bl	80044dc <_svfiprintf_r>
 8004198:	9b02      	ldr	r3, [sp, #8]
 800419a:	701c      	strb	r4, [r3, #0]
 800419c:	b01d      	add	sp, #116	@ 0x74
 800419e:	e8bd 4010 	ldmia.w	sp!, {r4, lr}
 80041a2:	b003      	add	sp, #12
 80041a4:	4770      	bx	lr
 80041a6:	bf00      	nop
 80041a8:	20000050 	.word	0x20000050
 80041ac:	ffff0208 	.word	0xffff0208

080041b0 <memset>:
 80041b0:	4402      	add	r2, r0
 80041b2:	4603      	mov	r3, r0
 80041b4:	4293      	cmp	r3, r2
 80041b6:	d100      	bne.n	80041ba <memset+0xa>
 80041b8:	4770      	bx	lr
 80041ba:	f803 1b01 	strb.w	r1, [r3], #1
 80041be:	e7f9      	b.n	80041b4 <memset+0x4>

080041c0 <__errno>:
 80041c0:	4b01      	ldr	r3, [pc, #4]	@ (80041c8 <__errno+0x8>)
 80041c2:	6818      	ldr	r0, [r3, #0]
 80041c4:	4770      	bx	lr
 80041c6:	bf00      	nop
 80041c8:	20000050 	.word	0x20000050

080041cc <__libc_init_array>:
 80041cc:	b570      	push	{r4, r5, r6, lr}
 80041ce:	4d0d      	ldr	r5, [pc, #52]	@ (8004204 <__libc_init_array+0x38>)
 80041d0:	4c0d      	ldr	r4, [pc, #52]	@ (8004208 <__libc_init_array+0x3c>)
 80041d2:	1b64      	subs	r4, r4, r5
 80041d4:	10a4      	asrs	r4, r4, #2
 80041d6:	2600      	movs	r6, #0
 80041d8:	42a6      	cmp	r6, r4
 80041da:	d109      	bne.n	80041f0 <__libc_init_array+0x24>
 80041dc:	4d0b      	ldr	r5, [pc, #44]	@ (800420c <__libc_init_array+0x40>)
 80041de:	4c0c      	ldr	r4, [pc, #48]	@ (8004210 <__libc_init_array+0x44>)
 80041e0:	f000 fc64 	bl	8004aac <_init>
 80041e4:	1b64      	subs	r4, r4, r5
 80041e6:	10a4      	asrs	r4, r4, #2
 80041e8:	2600      	movs	r6, #0
 80041ea:	42a6      	cmp	r6, r4
 80041ec:	d105      	bne.n	80041fa <__libc_init_array+0x2e>
 80041ee:	bd70      	pop	{r4, r5, r6, pc}
 80041f0:	f855 3b04 	ldr.w	r3, [r5], #4
 80041f4:	4798      	blx	r3
 80041f6:	3601      	adds	r6, #1
 80041f8:	e7ee      	b.n	80041d8 <__libc_init_array+0xc>
 80041fa:	f855 3b04 	ldr.w	r3, [r5], #4
 80041fe:	4798      	blx	r3
 8004200:	3601      	adds	r6, #1
 8004202:	e7f2      	b.n	80041ea <__libc_init_array+0x1e>
 8004204:	08004c10 	.word	0x08004c10
 8004208:	08004c10 	.word	0x08004c10
 800420c:	08004c10 	.word	0x08004c10
 8004210:	08004c14 	.word	0x08004c14

08004214 <__retarget_lock_acquire_recursive>:
 8004214:	4770      	bx	lr

08004216 <__retarget_lock_release_recursive>:
 8004216:	4770      	bx	lr

08004218 <memcpy>:
 8004218:	440a      	add	r2, r1
 800421a:	4291      	cmp	r1, r2
 800421c:	f100 33ff 	add.w	r3, r0, #4294967295	@ 0xffffffff
 8004220:	d100      	bne.n	8004224 <memcpy+0xc>
 8004222:	4770      	bx	lr
 8004224:	b510      	push	{r4, lr}
 8004226:	f811 4b01 	ldrb.w	r4, [r1], #1
 800422a:	f803 4f01 	strb.w	r4, [r3, #1]!
 800422e:	4291      	cmp	r1, r2
 8004230:	d1f9      	bne.n	8004226 <memcpy+0xe>
 8004232:	bd10      	pop	{r4, pc}

08004234 <_free_r>:
 8004234:	b538      	push	{r3, r4, r5, lr}
 8004236:	4605      	mov	r5, r0
 8004238:	2900      	cmp	r1, #0
 800423a:	d041      	beq.n	80042c0 <_free_r+0x8c>
 800423c:	f851 3c04 	ldr.w	r3, [r1, #-4]
 8004240:	1f0c      	subs	r4, r1, #4
 8004242:	2b00      	cmp	r3, #0
 8004244:	bfb8      	it	lt
 8004246:	18e4      	addlt	r4, r4, r3
 8004248:	f000 f8e0 	bl	800440c <__malloc_lock>
 800424c:	4a1d      	ldr	r2, [pc, #116]	@ (80042c4 <_free_r+0x90>)
 800424e:	6813      	ldr	r3, [r2, #0]
 8004250:	b933      	cbnz	r3, 8004260 <_free_r+0x2c>
 8004252:	6063      	str	r3, [r4, #4]
 8004254:	6014      	str	r4, [r2, #0]
 8004256:	4628      	mov	r0, r5
 8004258:	e8bd 4038 	ldmia.w	sp!, {r3, r4, r5, lr}
 800425c:	f000 b8dc 	b.w	8004418 <__malloc_unlock>
 8004260:	42a3      	cmp	r3, r4
 8004262:	d908      	bls.n	8004276 <_free_r+0x42>
 8004264:	6820      	ldr	r0, [r4, #0]
 8004266:	1821      	adds	r1, r4, r0
 8004268:	428b      	cmp	r3, r1
 800426a:	bf01      	itttt	eq
 800426c:	6819      	ldreq	r1, [r3, #0]
 800426e:	685b      	ldreq	r3, [r3, #4]
 8004270:	1809      	addeq	r1, r1, r0
 8004272:	6021      	streq	r1, [r4, #0]
 8004274:	e7ed      	b.n	8004252 <_free_r+0x1e>
 8004276:	461a      	mov	r2, r3
 8004278:	685b      	ldr	r3, [r3, #4]
 800427a:	b10b      	cbz	r3, 8004280 <_free_r+0x4c>
 800427c:	42a3      	cmp	r3, r4
 800427e:	d9fa      	bls.n	8004276 <_free_r+0x42>
 8004280:	6811      	ldr	r1, [r2, #0]
 8004282:	1850      	adds	r0, r2, r1
 8004284:	42a0      	cmp	r0, r4
 8004286:	d10b      	bne.n	80042a0 <_free_r+0x6c>
 8004288:	6820      	ldr	r0, [r4, #0]
 800428a:	4401      	add	r1, r0
 800428c:	1850      	adds	r0, r2, r1
 800428e:	4283      	cmp	r3, r0
 8004290:	6011      	str	r1, [r2, #0]
 8004292:	d1e0      	bne.n	8004256 <_free_r+0x22>
 8004294:	6818      	ldr	r0, [r3, #0]
 8004296:	685b      	ldr	r3, [r3, #4]
 8004298:	6053      	str	r3, [r2, #4]
 800429a:	4408      	add	r0, r1
 800429c:	6010      	str	r0, [r2, #0]
 800429e:	e7da      	b.n	8004256 <_free_r+0x22>
 80042a0:	d902      	bls.n	80042a8 <_free_r+0x74>
 80042a2:	230c      	movs	r3, #12
 80042a4:	602b      	str	r3, [r5, #0]
 80042a6:	e7d6      	b.n	8004256 <_free_r+0x22>
 80042a8:	6820      	ldr	r0, [r4, #0]
 80042aa:	1821      	adds	r1, r4, r0
 80042ac:	428b      	cmp	r3, r1
 80042ae:	bf04      	itt	eq
 80042b0:	6819      	ldreq	r1, [r3, #0]
 80042b2:	685b      	ldreq	r3, [r3, #4]
 80042b4:	6063      	str	r3, [r4, #4]
 80042b6:	bf04      	itt	eq
 80042b8:	1809      	addeq	r1, r1, r0
 80042ba:	6021      	streq	r1, [r4, #0]
 80042bc:	6054      	str	r4, [r2, #4]
 80042be:	e7ca      	b.n	8004256 <_free_r+0x22>
 80042c0:	bd38      	pop	{r3, r4, r5, pc}
 80042c2:	bf00      	nop
 80042c4:	20000380 	.word	0x20000380

080042c8 <sbrk_aligned>:
 80042c8:	b570      	push	{r4, r5, r6, lr}
 80042ca:	4e0f      	ldr	r6, [pc, #60]	@ (8004308 <sbrk_aligned+0x40>)
 80042cc:	460c      	mov	r4, r1
 80042ce:	6831      	ldr	r1, [r6, #0]
 80042d0:	4605      	mov	r5, r0
 80042d2:	b911      	cbnz	r1, 80042da <sbrk_aligned+0x12>
 80042d4:	f000 fba4 	bl	8004a20 <_sbrk_r>
 80042d8:	6030      	str	r0, [r6, #0]
 80042da:	4621      	mov	r1, r4
 80042dc:	4628      	mov	r0, r5
 80042de:	f000 fb9f 	bl	8004a20 <_sbrk_r>
 80042e2:	1c43      	adds	r3, r0, #1
 80042e4:	d103      	bne.n	80042ee <sbrk_aligned+0x26>
 80042e6:	f04f 34ff 	mov.w	r4, #4294967295	@ 0xffffffff
 80042ea:	4620      	mov	r0, r4
 80042ec:	bd70      	pop	{r4, r5, r6, pc}
 80042ee:	1cc4      	adds	r4, r0, #3
 80042f0:	f024 0403 	bic.w	r4, r4, #3
 80042f4:	42a0      	cmp	r0, r4
 80042f6:	d0f8      	beq.n	80042ea <sbrk_aligned+0x22>
 80042f8:	1a21      	subs	r1, r4, r0
 80042fa:	4628      	mov	r0, r5
 80042fc:	f000 fb90 	bl	8004a20 <_sbrk_r>
 8004300:	3001      	adds	r0, #1
 8004302:	d1f2      	bne.n	80042ea <sbrk_aligned+0x22>
 8004304:	e7ef      	b.n	80042e6 <sbrk_aligned+0x1e>
 8004306:	bf00      	nop
 8004308:	2000037c 	.word	0x2000037c

0800430c <_malloc_r>:
 800430c:	e92d 43f8 	stmdb	sp!, {r3, r4, r5, r6, r7, r8, r9, lr}
 8004310:	1ccd      	adds	r5, r1, #3
 8004312:	f025 0503 	bic.w	r5, r5, #3
 8004316:	3508      	adds	r5, #8
 8004318:	2d0c      	cmp	r5, #12
 800431a:	bf38      	it	cc
 800431c:	250c      	movcc	r5, #12
 800431e:	2d00      	cmp	r5, #0
 8004320:	4606      	mov	r6, r0
 8004322:	db01      	blt.n	8004328 <_malloc_r+0x1c>
 8004324:	42a9      	cmp	r1, r5
 8004326:	d904      	bls.n	8004332 <_malloc_r+0x26>
 8004328:	230c      	movs	r3, #12
 800432a:	6033      	str	r3, [r6, #0]
 800432c:	2000      	movs	r0, #0
 800432e:	e8bd 83f8 	ldmia.w	sp!, {r3, r4, r5, r6, r7, r8, r9, pc}
 8004332:	f8df 80d4 	ldr.w	r8, [pc, #212]	@ 8004408 <_malloc_r+0xfc>
 8004336:	f000 f869 	bl	800440c <__malloc_lock>
 800433a:	f8d8 3000 	ldr.w	r3, [r8]
 800433e:	461c      	mov	r4, r3
 8004340:	bb44      	cbnz	r4, 8004394 <_malloc_r+0x88>
 8004342:	4629      	mov	r1, r5
 8004344:	4630      	mov	r0, r6
 8004346:	f7ff ffbf 	bl	80042c8 <sbrk_aligned>
 800434a:	1c43      	adds	r3, r0, #1
 800434c:	4604      	mov	r4, r0
 800434e:	d158      	bne.n	8004402 <_malloc_r+0xf6>
 8004350:	f8d8 4000 	ldr.w	r4, [r8]
 8004354:	4627      	mov	r7, r4
 8004356:	2f00      	cmp	r7, #0
 8004358:	d143      	bne.n	80043e2 <_malloc_r+0xd6>
 800435a:	2c00      	cmp	r4, #0
 800435c:	d04b      	beq.n	80043f6 <_malloc_r+0xea>
 800435e:	6823      	ldr	r3, [r4, #0]
 8004360:	4639      	mov	r1, r7
 8004362:	4630      	mov	r0, r6
 8004364:	eb04 0903 	add.w	r9, r4, r3
 8004368:	f000 fb5a 	bl	8004a20 <_sbrk_r>
 800436c:	4581      	cmp	r9, r0
 800436e:	d142      	bne.n	80043f6 <_malloc_r+0xea>
 8004370:	6821      	ldr	r1, [r4, #0]
 8004372:	1a6d      	subs	r5, r5, r1
 8004374:	4629      	mov	r1, r5
 8004376:	4630      	mov	r0, r6
 8004378:	f7ff ffa6 	bl	80042c8 <sbrk_aligned>
 800437c:	3001      	adds	r0, #1
 800437e:	d03a      	beq.n	80043f6 <_malloc_r+0xea>
 8004380:	6823      	ldr	r3, [r4, #0]
 8004382:	442b      	add	r3, r5
 8004384:	6023      	str	r3, [r4, #0]
 8004386:	f8d8 3000 	ldr.w	r3, [r8]
 800438a:	685a      	ldr	r2, [r3, #4]
 800438c:	bb62      	cbnz	r2, 80043e8 <_malloc_r+0xdc>
 800438e:	f8c8 7000 	str.w	r7, [r8]
 8004392:	e00f      	b.n	80043b4 <_malloc_r+0xa8>
 8004394:	6822      	ldr	r2, [r4, #0]
 8004396:	1b52      	subs	r2, r2, r5
 8004398:	d420      	bmi.n	80043dc <_malloc_r+0xd0>
 800439a:	2a0b      	cmp	r2, #11
 800439c:	d917      	bls.n	80043ce <_malloc_r+0xc2>
 800439e:	1961      	adds	r1, r4, r5
 80043a0:	42a3      	cmp	r3, r4
 80043a2:	6025      	str	r5, [r4, #0]
 80043a4:	bf18      	it	ne
 80043a6:	6059      	strne	r1, [r3, #4]
 80043a8:	6863      	ldr	r3, [r4, #4]
 80043aa:	bf08      	it	eq
 80043ac:	f8c8 1000 	streq.w	r1, [r8]
 80043b0:	5162      	str	r2, [r4, r5]
 80043b2:	604b      	str	r3, [r1, #4]
 80043b4:	4630      	mov	r0, r6
 80043b6:	f000 f82f 	bl	8004418 <__malloc_unlock>
 80043ba:	f104 000b 	add.w	r0, r4, #11
 80043be:	1d23      	adds	r3, r4, #4
 80043c0:	f020 0007 	bic.w	r0, r0, #7
 80043c4:	1ac2      	subs	r2, r0, r3
 80043c6:	bf1c      	itt	ne
 80043c8:	1a1b      	subne	r3, r3, r0
 80043ca:	50a3      	strne	r3, [r4, r2]
 80043cc:	e7af      	b.n	800432e <_malloc_r+0x22>
 80043ce:	6862      	ldr	r2, [r4, #4]
 80043d0:	42a3      	cmp	r3, r4
 80043d2:	bf0c      	ite	eq
 80043d4:	f8c8 2000 	streq.w	r2, [r8]
 80043d8:	605a      	strne	r2, [r3, #4]
 80043da:	e7eb      	b.n	80043b4 <_malloc_r+0xa8>
 80043dc:	4623      	mov	r3, r4
 80043de:	6864      	ldr	r4, [r4, #4]
 80043e0:	e7ae      	b.n	8004340 <_malloc_r+0x34>
 80043e2:	463c      	mov	r4, r7
 80043e4:	687f      	ldr	r7, [r7, #4]
 80043e6:	e7b6      	b.n	8004356 <_malloc_r+0x4a>
 80043e8:	461a      	mov	r2, r3
 80043ea:	685b      	ldr	r3, [r3, #4]
 80043ec:	42a3      	cmp	r3, r4
 80043ee:	d1fb      	bne.n	80043e8 <_malloc_r+0xdc>
 80043f0:	2300      	movs	r3, #0
 80043f2:	6053      	str	r3, [r2, #4]
 80043f4:	e7de      	b.n	80043b4 <_malloc_r+0xa8>
 80043f6:	230c      	movs	r3, #12
 80043f8:	6033      	str	r3, [r6, #0]
 80043fa:	4630      	mov	r0, r6
 80043fc:	f000 f80c 	bl	8004418 <__malloc_unlock>
 8004400:	e794      	b.n	800432c <_malloc_r+0x20>
 8004402:	6005      	str	r5, [r0, #0]
 8004404:	e7d6      	b.n	80043b4 <_malloc_r+0xa8>
 8004406:	bf00      	nop
 8004408:	20000380 	.word	0x20000380

0800440c <__malloc_lock>:
 800440c:	4801      	ldr	r0, [pc, #4]	@ (8004414 <__malloc_lock+0x8>)
 800440e:	f7ff bf01 	b.w	8004214 <__retarget_lock_acquire_recursive>
 8004412:	bf00      	nop
 8004414:	20000378 	.word	0x20000378

08004418 <__malloc_unlock>:
 8004418:	4801      	ldr	r0, [pc, #4]	@ (8004420 <__malloc_unlock+0x8>)
 800441a:	f7ff befc 	b.w	8004216 <__retarget_lock_release_recursive>
 800441e:	bf00      	nop
 8004420:	20000378 	.word	0x20000378

08004424 <__ssputs_r>:
 8004424:	e92d 47f0 	stmdb	sp!, {r4, r5, r6, r7, r8, r9, sl, lr}
 8004428:	688e      	ldr	r6, [r1, #8]
 800442a:	461f      	mov	r7, r3
 800442c:	42be      	cmp	r6, r7
 800442e:	680b      	ldr	r3, [r1, #0]
 8004430:	4682      	mov	sl, r0
 8004432:	460c      	mov	r4, r1
 8004434:	4690      	mov	r8, r2
 8004436:	d82d      	bhi.n	8004494 <__ssputs_r+0x70>
 8004438:	f9b1 200c 	ldrsh.w	r2, [r1, #12]
 800443c:	f412 6f90 	tst.w	r2, #1152	@ 0x480
 8004440:	d026      	beq.n	8004490 <__ssputs_r+0x6c>
 8004442:	6965      	ldr	r5, [r4, #20]
 8004444:	6909      	ldr	r1, [r1, #16]
 8004446:	eb05 0545 	add.w	r5, r5, r5, lsl #1
 800444a:	eba3 0901 	sub.w	r9, r3, r1
 800444e:	eb05 75d5 	add.w	r5, r5, r5, lsr #31
 8004452:	1c7b      	adds	r3, r7, #1
 8004454:	444b      	add	r3, r9
 8004456:	106d      	asrs	r5, r5, #1
 8004458:	429d      	cmp	r5, r3
 800445a:	bf38      	it	cc
 800445c:	461d      	movcc	r5, r3
 800445e:	0553      	lsls	r3, r2, #21
 8004460:	d527      	bpl.n	80044b2 <__ssputs_r+0x8e>
 8004462:	4629      	mov	r1, r5
 8004464:	f7ff ff52 	bl	800430c <_malloc_r>
 8004468:	4606      	mov	r6, r0
 800446a:	b360      	cbz	r0, 80044c6 <__ssputs_r+0xa2>
 800446c:	6921      	ldr	r1, [r4, #16]
 800446e:	464a      	mov	r2, r9
 8004470:	f7ff fed2 	bl	8004218 <memcpy>
 8004474:	89a3      	ldrh	r3, [r4, #12]
 8004476:	f423 6390 	bic.w	r3, r3, #1152	@ 0x480
 800447a:	f043 0380 	orr.w	r3, r3, #128	@ 0x80
 800447e:	81a3      	strh	r3, [r4, #12]
 8004480:	6126      	str	r6, [r4, #16]
 8004482:	6165      	str	r5, [r4, #20]
 8004484:	444e      	add	r6, r9
 8004486:	eba5 0509 	sub.w	r5, r5, r9
 800448a:	6026      	str	r6, [r4, #0]
 800448c:	60a5      	str	r5, [r4, #8]
 800448e:	463e      	mov	r6, r7
 8004490:	42be      	cmp	r6, r7
 8004492:	d900      	bls.n	8004496 <__ssputs_r+0x72>
 8004494:	463e      	mov	r6, r7
 8004496:	6820      	ldr	r0, [r4, #0]
 8004498:	4632      	mov	r2, r6
 800449a:	4641      	mov	r1, r8
 800449c:	f000 faa6 	bl	80049ec <memmove>
 80044a0:	68a3      	ldr	r3, [r4, #8]
 80044a2:	1b9b      	subs	r3, r3, r6
 80044a4:	60a3      	str	r3, [r4, #8]
 80044a6:	6823      	ldr	r3, [r4, #0]
 80044a8:	4433      	add	r3, r6
 80044aa:	6023      	str	r3, [r4, #0]
 80044ac:	2000      	movs	r0, #0
 80044ae:	e8bd 87f0 	ldmia.w	sp!, {r4, r5, r6, r7, r8, r9, sl, pc}
 80044b2:	462a      	mov	r2, r5
 80044b4:	f000 fac4 	bl	8004a40 <_realloc_r>
 80044b8:	4606      	mov	r6, r0
 80044ba:	2800      	cmp	r0, #0
 80044bc:	d1e0      	bne.n	8004480 <__ssputs_r+0x5c>
 80044be:	6921      	ldr	r1, [r4, #16]
 80044c0:	4650      	mov	r0, sl
 80044c2:	f7ff feb7 	bl	8004234 <_free_r>
 80044c6:	230c      	movs	r3, #12
 80044c8:	f8ca 3000 	str.w	r3, [sl]
 80044cc:	89a3      	ldrh	r3, [r4, #12]
 80044ce:	f043 0340 	orr.w	r3, r3, #64	@ 0x40
 80044d2:	81a3      	strh	r3, [r4, #12]
 80044d4:	f04f 30ff 	mov.w	r0, #4294967295	@ 0xffffffff
 80044d8:	e7e9      	b.n	80044ae <__ssputs_r+0x8a>
	...

080044dc <_svfiprintf_r>:
 80044dc:	e92d 4ff0 	stmdb	sp!, {r4, r5, r6, r7, r8, r9, sl, fp, lr}
 80044e0:	4698      	mov	r8, r3
 80044e2:	898b      	ldrh	r3, [r1, #12]
 80044e4:	061b      	lsls	r3, r3, #24
 80044e6:	b09d      	sub	sp, #116	@ 0x74
 80044e8:	4607      	mov	r7, r0
 80044ea:	460d      	mov	r5, r1
 80044ec:	4614      	mov	r4, r2
 80044ee:	d510      	bpl.n	8004512 <_svfiprintf_r+0x36>
 80044f0:	690b      	ldr	r3, [r1, #16]
 80044f2:	b973      	cbnz	r3, 8004512 <_svfiprintf_r+0x36>
 80044f4:	2140      	movs	r1, #64	@ 0x40
 80044f6:	f7ff ff09 	bl	800430c <_malloc_r>
 80044fa:	6028      	str	r0, [r5, #0]
 80044fc:	6128      	str	r0, [r5, #16]
 80044fe:	b930      	cbnz	r0, 800450e <_svfiprintf_r+0x32>
 8004500:	230c      	movs	r3, #12
 8004502:	603b      	str	r3, [r7, #0]
 8004504:	f04f 30ff 	mov.w	r0, #4294967295	@ 0xffffffff
 8004508:	b01d      	add	sp, #116	@ 0x74
 800450a:	e8bd 8ff0 	ldmia.w	sp!, {r4, r5, r6, r7, r8, r9, sl, fp, pc}
 800450e:	2340      	movs	r3, #64	@ 0x40
 8004510:	616b      	str	r3, [r5, #20]
 8004512:	2300      	movs	r3, #0
 8004514:	9309      	str	r3, [sp, #36]	@ 0x24
 8004516:	2320      	movs	r3, #32
 8004518:	f88d 3029 	strb.w	r3, [sp, #41]	@ 0x29
 800451c:	f8cd 800c 	str.w	r8, [sp, #12]
 8004520:	2330      	movs	r3, #48	@ 0x30
 8004522:	f8df 819c 	ldr.w	r8, [pc, #412]	@ 80046c0 <_svfiprintf_r+0x1e4>
 8004526:	f88d 302a 	strb.w	r3, [sp, #42]	@ 0x2a
 800452a:	f04f 0901 	mov.w	r9, #1
 800452e:	4623      	mov	r3, r4
 8004530:	469a      	mov	sl, r3
 8004532:	f813 2b01 	ldrb.w	r2, [r3], #1
 8004536:	b10a      	cbz	r2, 800453c <_svfiprintf_r+0x60>
 8004538:	2a25      	cmp	r2, #37	@ 0x25
 800453a:	d1f9      	bne.n	8004530 <_svfiprintf_r+0x54>
 800453c:	ebba 0b04 	subs.w	fp, sl, r4
 8004540:	d00b      	beq.n	800455a <_svfiprintf_r+0x7e>
 8004542:	465b      	mov	r3, fp
 8004544:	4622      	mov	r2, r4
 8004546:	4629      	mov	r1, r5
 8004548:	4638      	mov	r0, r7
 800454a:	f7ff ff6b 	bl	8004424 <__ssputs_r>
 800454e:	3001      	adds	r0, #1
 8004550:	f000 80a7 	beq.w	80046a2 <_svfiprintf_r+0x1c6>
 8004554:	9a09      	ldr	r2, [sp, #36]	@ 0x24
 8004556:	445a      	add	r2, fp
 8004558:	9209      	str	r2, [sp, #36]	@ 0x24
 800455a:	f89a 3000 	ldrb.w	r3, [sl]
 800455e:	2b00      	cmp	r3, #0
 8004560:	f000 809f 	beq.w	80046a2 <_svfiprintf_r+0x1c6>
 8004564:	2300      	movs	r3, #0
 8004566:	f04f 32ff 	mov.w	r2, #4294967295	@ 0xffffffff
 800456a:	e9cd 2305 	strd	r2, r3, [sp, #20]
 800456e:	f10a 0a01 	add.w	sl, sl, #1
 8004572:	9304      	str	r3, [sp, #16]
 8004574:	9307      	str	r3, [sp, #28]
 8004576:	f88d 3053 	strb.w	r3, [sp, #83]	@ 0x53
 800457a:	931a      	str	r3, [sp, #104]	@ 0x68
 800457c:	4654      	mov	r4, sl
 800457e:	2205      	movs	r2, #5
 8004580:	f814 1b01 	ldrb.w	r1, [r4], #1
 8004584:	484e      	ldr	r0, [pc, #312]	@ (80046c0 <_svfiprintf_r+0x1e4>)
 8004586:	f7fb fe4b 	bl	8000220 <memchr>
 800458a:	9a04      	ldr	r2, [sp, #16]
 800458c:	b9d8      	cbnz	r0, 80045c6 <_svfiprintf_r+0xea>
 800458e:	06d0      	lsls	r0, r2, #27
 8004590:	bf44      	itt	mi
 8004592:	2320      	movmi	r3, #32
 8004594:	f88d 3053 	strbmi.w	r3, [sp, #83]	@ 0x53
 8004598:	0711      	lsls	r1, r2, #28
 800459a:	bf44      	itt	mi
 800459c:	232b      	movmi	r3, #43	@ 0x2b
 800459e:	f88d 3053 	strbmi.w	r3, [sp, #83]	@ 0x53
 80045a2:	f89a 3000 	ldrb.w	r3, [sl]
 80045a6:	2b2a      	cmp	r3, #42	@ 0x2a
 80045a8:	d015      	beq.n	80045d6 <_svfiprintf_r+0xfa>
 80045aa:	9a07      	ldr	r2, [sp, #28]
 80045ac:	4654      	mov	r4, sl
 80045ae:	2000      	movs	r0, #0
 80045b0:	f04f 0c0a 	mov.w	ip, #10
 80045b4:	4621      	mov	r1, r4
 80045b6:	f811 3b01 	ldrb.w	r3, [r1], #1
 80045ba:	3b30      	subs	r3, #48	@ 0x30
 80045bc:	2b09      	cmp	r3, #9
 80045be:	d94b      	bls.n	8004658 <_svfiprintf_r+0x17c>
 80045c0:	b1b0      	cbz	r0, 80045f0 <_svfiprintf_r+0x114>
 80045c2:	9207      	str	r2, [sp, #28]
 80045c4:	e014      	b.n	80045f0 <_svfiprintf_r+0x114>
 80045c6:	eba0 0308 	sub.w	r3, r0, r8
 80045ca:	fa09 f303 	lsl.w	r3, r9, r3
 80045ce:	4313      	orrs	r3, r2
 80045d0:	9304      	str	r3, [sp, #16]
 80045d2:	46a2      	mov	sl, r4
 80045d4:	e7d2      	b.n	800457c <_svfiprintf_r+0xa0>
 80045d6:	9b03      	ldr	r3, [sp, #12]
 80045d8:	1d19      	adds	r1, r3, #4
 80045da:	681b      	ldr	r3, [r3, #0]
 80045dc:	9103      	str	r1, [sp, #12]
 80045de:	2b00      	cmp	r3, #0
 80045e0:	bfbb      	ittet	lt
 80045e2:	425b      	neglt	r3, r3
 80045e4:	f042 0202 	orrlt.w	r2, r2, #2
 80045e8:	9307      	strge	r3, [sp, #28]
 80045ea:	9307      	strlt	r3, [sp, #28]
 80045ec:	bfb8      	it	lt
 80045ee:	9204      	strlt	r2, [sp, #16]
 80045f0:	7823      	ldrb	r3, [r4, #0]
 80045f2:	2b2e      	cmp	r3, #46	@ 0x2e
 80045f4:	d10a      	bne.n	800460c <_svfiprintf_r+0x130>
 80045f6:	7863      	ldrb	r3, [r4, #1]
 80045f8:	2b2a      	cmp	r3, #42	@ 0x2a
 80045fa:	d132      	bne.n	8004662 <_svfiprintf_r+0x186>
 80045fc:	9b03      	ldr	r3, [sp, #12]
 80045fe:	1d1a      	adds	r2, r3, #4
 8004600:	681b      	ldr	r3, [r3, #0]
 8004602:	9203      	str	r2, [sp, #12]
 8004604:	ea43 73e3 	orr.w	r3, r3, r3, asr #31
 8004608:	3402      	adds	r4, #2
 800460a:	9305      	str	r3, [sp, #20]
 800460c:	f8df a0c0 	ldr.w	sl, [pc, #192]	@ 80046d0 <_svfiprintf_r+0x1f4>
 8004610:	7821      	ldrb	r1, [r4, #0]
 8004612:	2203      	movs	r2, #3
 8004614:	4650      	mov	r0, sl
 8004616:	f7fb fe03 	bl	8000220 <memchr>
 800461a:	b138      	cbz	r0, 800462c <_svfiprintf_r+0x150>
 800461c:	9b04      	ldr	r3, [sp, #16]
 800461e:	eba0 000a 	sub.w	r0, r0, sl
 8004622:	2240      	movs	r2, #64	@ 0x40
 8004624:	4082      	lsls	r2, r0
 8004626:	4313      	orrs	r3, r2
 8004628:	3401      	adds	r4, #1
 800462a:	9304      	str	r3, [sp, #16]
 800462c:	f814 1b01 	ldrb.w	r1, [r4], #1
 8004630:	4824      	ldr	r0, [pc, #144]	@ (80046c4 <_svfiprintf_r+0x1e8>)
 8004632:	f88d 1028 	strb.w	r1, [sp, #40]	@ 0x28
 8004636:	2206      	movs	r2, #6
 8004638:	f7fb fdf2 	bl	8000220 <memchr>
 800463c:	2800      	cmp	r0, #0
 800463e:	d036      	beq.n	80046ae <_svfiprintf_r+0x1d2>
 8004640:	4b21      	ldr	r3, [pc, #132]	@ (80046c8 <_svfiprintf_r+0x1ec>)
 8004642:	bb1b      	cbnz	r3, 800468c <_svfiprintf_r+0x1b0>
 8004644:	9b03      	ldr	r3, [sp, #12]
 8004646:	3307      	adds	r3, #7
 8004648:	f023 0307 	bic.w	r3, r3, #7
 800464c:	3308      	adds	r3, #8
 800464e:	9303      	str	r3, [sp, #12]
 8004650:	9b09      	ldr	r3, [sp, #36]	@ 0x24
 8004652:	4433      	add	r3, r6
 8004654:	9309      	str	r3, [sp, #36]	@ 0x24
 8004656:	e76a      	b.n	800452e <_svfiprintf_r+0x52>
 8004658:	fb0c 3202 	mla	r2, ip, r2, r3
 800465c:	460c      	mov	r4, r1
 800465e:	2001      	movs	r0, #1
 8004660:	e7a8      	b.n	80045b4 <_svfiprintf_r+0xd8>
 8004662:	2300      	movs	r3, #0
 8004664:	3401      	adds	r4, #1
 8004666:	9305      	str	r3, [sp, #20]
 8004668:	4619      	mov	r1, r3
 800466a:	f04f 0c0a 	mov.w	ip, #10
 800466e:	4620      	mov	r0, r4
 8004670:	f810 2b01 	ldrb.w	r2, [r0], #1
 8004674:	3a30      	subs	r2, #48	@ 0x30
 8004676:	2a09      	cmp	r2, #9
 8004678:	d903      	bls.n	8004682 <_svfiprintf_r+0x1a6>
 800467a:	2b00      	cmp	r3, #0
 800467c:	d0c6      	beq.n	800460c <_svfiprintf_r+0x130>
 800467e:	9105      	str	r1, [sp, #20]
 8004680:	e7c4      	b.n	800460c <_svfiprintf_r+0x130>
 8004682:	fb0c 2101 	mla	r1, ip, r1, r2
 8004686:	4604      	mov	r4, r0
 8004688:	2301      	movs	r3, #1
 800468a:	e7f0      	b.n	800466e <_svfiprintf_r+0x192>
 800468c:	ab03      	add	r3, sp, #12
 800468e:	9300      	str	r3, [sp, #0]
 8004690:	462a      	mov	r2, r5
 8004692:	4b0e      	ldr	r3, [pc, #56]	@ (80046cc <_svfiprintf_r+0x1f0>)
 8004694:	a904      	add	r1, sp, #16
 8004696:	4638      	mov	r0, r7
 8004698:	f3af 8000 	nop.w
 800469c:	1c42      	adds	r2, r0, #1
 800469e:	4606      	mov	r6, r0
 80046a0:	d1d6      	bne.n	8004650 <_svfiprintf_r+0x174>
 80046a2:	89ab      	ldrh	r3, [r5, #12]
 80046a4:	065b      	lsls	r3, r3, #25
 80046a6:	f53f af2d 	bmi.w	8004504 <_svfiprintf_r+0x28>
 80046aa:	9809      	ldr	r0, [sp, #36]	@ 0x24
 80046ac:	e72c      	b.n	8004508 <_svfiprintf_r+0x2c>
 80046ae:	ab03      	add	r3, sp, #12
 80046b0:	9300      	str	r3, [sp, #0]
 80046b2:	462a      	mov	r2, r5
 80046b4:	4b05      	ldr	r3, [pc, #20]	@ (80046cc <_svfiprintf_r+0x1f0>)
 80046b6:	a904      	add	r1, sp, #16
 80046b8:	4638      	mov	r0, r7
 80046ba:	f000 f879 	bl	80047b0 <_printf_i>
 80046be:	e7ed      	b.n	800469c <_svfiprintf_r+0x1c0>
 80046c0:	08004bd4 	.word	0x08004bd4
 80046c4:	08004bde 	.word	0x08004bde
 80046c8:	00000000 	.word	0x00000000
 80046cc:	08004425 	.word	0x08004425
 80046d0:	08004bda 	.word	0x08004bda

080046d4 <_printf_common>:
 80046d4:	e92d 47f0 	stmdb	sp!, {r4, r5, r6, r7, r8, r9, sl, lr}
 80046d8:	4616      	mov	r6, r2
 80046da:	4698      	mov	r8, r3
 80046dc:	688a      	ldr	r2, [r1, #8]
 80046de:	690b      	ldr	r3, [r1, #16]
 80046e0:	f8dd 9020 	ldr.w	r9, [sp, #32]
 80046e4:	4293      	cmp	r3, r2
 80046e6:	bfb8      	it	lt
 80046e8:	4613      	movlt	r3, r2
 80046ea:	6033      	str	r3, [r6, #0]
 80046ec:	f891 2043 	ldrb.w	r2, [r1, #67]	@ 0x43
 80046f0:	4607      	mov	r7, r0
 80046f2:	460c      	mov	r4, r1
 80046f4:	b10a      	cbz	r2, 80046fa <_printf_common+0x26>
 80046f6:	3301      	adds	r3, #1
 80046f8:	6033      	str	r3, [r6, #0]
 80046fa:	6823      	ldr	r3, [r4, #0]
 80046fc:	0699      	lsls	r1, r3, #26
 80046fe:	bf42      	ittt	mi
 8004700:	6833      	ldrmi	r3, [r6, #0]
 8004702:	3302      	addmi	r3, #2
 8004704:	6033      	strmi	r3, [r6, #0]
 8004706:	6825      	ldr	r5, [r4, #0]
 8004708:	f015 0506 	ands.w	r5, r5, #6
 800470c:	d106      	bne.n	800471c <_printf_common+0x48>
 800470e:	f104 0a19 	add.w	sl, r4, #25
 8004712:	68e3      	ldr	r3, [r4, #12]
 8004714:	6832      	ldr	r2, [r6, #0]
 8004716:	1a9b      	subs	r3, r3, r2
 8004718:	42ab      	cmp	r3, r5
 800471a:	dc26      	bgt.n	800476a <_printf_common+0x96>
 800471c:	f894 3043 	ldrb.w	r3, [r4, #67]	@ 0x43
 8004720:	6822      	ldr	r2, [r4, #0]
 8004722:	3b00      	subs	r3, #0
 8004724:	bf18      	it	ne
 8004726:	2301      	movne	r3, #1
 8004728:	0692      	lsls	r2, r2, #26
 800472a:	d42b      	bmi.n	8004784 <_printf_common+0xb0>
 800472c:	f104 0243 	add.w	r2, r4, #67	@ 0x43
 8004730:	4641      	mov	r1, r8
 8004732:	4638      	mov	r0, r7
 8004734:	47c8      	blx	r9
 8004736:	3001      	adds	r0, #1
 8004738:	d01e      	beq.n	8004778 <_printf_common+0xa4>
 800473a:	6823      	ldr	r3, [r4, #0]
 800473c:	6922      	ldr	r2, [r4, #16]
 800473e:	f003 0306 	and.w	r3, r3, #6
 8004742:	2b04      	cmp	r3, #4
 8004744:	bf02      	ittt	eq
 8004746:	68e5      	ldreq	r5, [r4, #12]
 8004748:	6833      	ldreq	r3, [r6, #0]
 800474a:	1aed      	subeq	r5, r5, r3
 800474c:	68a3      	ldr	r3, [r4, #8]
 800474e:	bf0c      	ite	eq
 8004750:	ea25 75e5 	biceq.w	r5, r5, r5, asr #31
 8004754:	2500      	movne	r5, #0
 8004756:	4293      	cmp	r3, r2
 8004758:	bfc4      	itt	gt
 800475a:	1a9b      	subgt	r3, r3, r2
 800475c:	18ed      	addgt	r5, r5, r3
 800475e:	2600      	movs	r6, #0
 8004760:	341a      	adds	r4, #26
 8004762:	42b5      	cmp	r5, r6
 8004764:	d11a      	bne.n	800479c <_printf_common+0xc8>
 8004766:	2000      	movs	r0, #0
 8004768:	e008      	b.n	800477c <_printf_common+0xa8>
 800476a:	2301      	movs	r3, #1
 800476c:	4652      	mov	r2, sl
 800476e:	4641      	mov	r1, r8
 8004770:	4638      	mov	r0, r7
 8004772:	47c8      	blx	r9
 8004774:	3001      	adds	r0, #1
 8004776:	d103      	bne.n	8004780 <_printf_common+0xac>
 8004778:	f04f 30ff 	mov.w	r0, #4294967295	@ 0xffffffff
 800477c:	e8bd 87f0 	ldmia.w	sp!, {r4, r5, r6, r7, r8, r9, sl, pc}
 8004780:	3501      	adds	r5, #1
 8004782:	e7c6      	b.n	8004712 <_printf_common+0x3e>
 8004784:	18e1      	adds	r1, r4, r3
 8004786:	1c5a      	adds	r2, r3, #1
 8004788:	2030      	movs	r0, #48	@ 0x30
 800478a:	f881 0043 	strb.w	r0, [r1, #67]	@ 0x43
 800478e:	4422      	add	r2, r4
 8004790:	f894 1045 	ldrb.w	r1, [r4, #69]	@ 0x45
 8004794:	f882 1043 	strb.w	r1, [r2, #67]	@ 0x43
 8004798:	3302      	adds	r3, #2
 800479a:	e7c7      	b.n	800472c <_printf_common+0x58>
 800479c:	2301      	movs	r3, #1
 800479e:	4622      	mov	r2, r4
 80047a0:	4641      	mov	r1, r8
 80047a2:	4638      	mov	r0, r7
 80047a4:	47c8      	blx	r9
 80047a6:	3001      	adds	r0, #1
 80047a8:	d0e6      	beq.n	8004778 <_printf_common+0xa4>
 80047aa:	3601      	adds	r6, #1
 80047ac:	e7d9      	b.n	8004762 <_printf_common+0x8e>
	...

080047b0 <_printf_i>:
 80047b0:	e92d 47ff 	stmdb	sp!, {r0, r1, r2, r3, r4, r5, r6, r7, r8, r9, sl, lr}
 80047b4:	7e0f      	ldrb	r7, [r1, #24]
 80047b6:	9e0c      	ldr	r6, [sp, #48]	@ 0x30
 80047b8:	2f78      	cmp	r7, #120	@ 0x78
 80047ba:	4691      	mov	r9, r2
 80047bc:	4680      	mov	r8, r0
 80047be:	460c      	mov	r4, r1
 80047c0:	469a      	mov	sl, r3
 80047c2:	f101 0243 	add.w	r2, r1, #67	@ 0x43
 80047c6:	d807      	bhi.n	80047d8 <_printf_i+0x28>
 80047c8:	2f62      	cmp	r7, #98	@ 0x62
 80047ca:	d80a      	bhi.n	80047e2 <_printf_i+0x32>
 80047cc:	2f00      	cmp	r7, #0
 80047ce:	f000 80d1 	beq.w	8004974 <_printf_i+0x1c4>
 80047d2:	2f58      	cmp	r7, #88	@ 0x58
 80047d4:	f000 80b8 	beq.w	8004948 <_printf_i+0x198>
 80047d8:	f104 0642 	add.w	r6, r4, #66	@ 0x42
 80047dc:	f884 7042 	strb.w	r7, [r4, #66]	@ 0x42
 80047e0:	e03a      	b.n	8004858 <_printf_i+0xa8>
 80047e2:	f1a7 0363 	sub.w	r3, r7, #99	@ 0x63
 80047e6:	2b15      	cmp	r3, #21
 80047e8:	d8f6      	bhi.n	80047d8 <_printf_i+0x28>
 80047ea:	a101      	add	r1, pc, #4	@ (adr r1, 80047f0 <_printf_i+0x40>)
 80047ec:	f851 f023 	ldr.w	pc, [r1, r3, lsl #2]
 80047f0:	08004849 	.word	0x08004849
 80047f4:	0800485d 	.word	0x0800485d
 80047f8:	080047d9 	.word	0x080047d9
 80047fc:	080047d9 	.word	0x080047d9
 8004800:	080047d9 	.word	0x080047d9
 8004804:	080047d9 	.word	0x080047d9
 8004808:	0800485d 	.word	0x0800485d
 800480c:	080047d9 	.word	0x080047d9
 8004810:	080047d9 	.word	0x080047d9
 8004814:	080047d9 	.word	0x080047d9
 8004818:	080047d9 	.word	0x080047d9
 800481c:	0800495b 	.word	0x0800495b
 8004820:	08004887 	.word	0x08004887
 8004824:	08004915 	.word	0x08004915
 8004828:	080047d9 	.word	0x080047d9
 800482c:	080047d9 	.word	0x080047d9
 8004830:	0800497d 	.word	0x0800497d
 8004834:	080047d9 	.word	0x080047d9
 8004838:	08004887 	.word	0x08004887
 800483c:	080047d9 	.word	0x080047d9
 8004840:	080047d9 	.word	0x080047d9
 8004844:	0800491d 	.word	0x0800491d
 8004848:	6833      	ldr	r3, [r6, #0]
 800484a:	1d1a      	adds	r2, r3, #4
 800484c:	681b      	ldr	r3, [r3, #0]
 800484e:	6032      	str	r2, [r6, #0]
 8004850:	f104 0642 	add.w	r6, r4, #66	@ 0x42
 8004854:	f884 3042 	strb.w	r3, [r4, #66]	@ 0x42
 8004858:	2301      	movs	r3, #1
 800485a:	e09c      	b.n	8004996 <_printf_i+0x1e6>
 800485c:	6833      	ldr	r3, [r6, #0]
 800485e:	6820      	ldr	r0, [r4, #0]
 8004860:	1d19      	adds	r1, r3, #4
 8004862:	6031      	str	r1, [r6, #0]
 8004864:	0606      	lsls	r6, r0, #24
 8004866:	d501      	bpl.n	800486c <_printf_i+0xbc>
 8004868:	681d      	ldr	r5, [r3, #0]
 800486a:	e003      	b.n	8004874 <_printf_i+0xc4>
 800486c:	0645      	lsls	r5, r0, #25
 800486e:	d5fb      	bpl.n	8004868 <_printf_i+0xb8>
 8004870:	f9b3 5000 	ldrsh.w	r5, [r3]
 8004874:	2d00      	cmp	r5, #0
 8004876:	da03      	bge.n	8004880 <_printf_i+0xd0>
 8004878:	232d      	movs	r3, #45	@ 0x2d
 800487a:	426d      	negs	r5, r5
 800487c:	f884 3043 	strb.w	r3, [r4, #67]	@ 0x43
 8004880:	4858      	ldr	r0, [pc, #352]	@ (80049e4 <_printf_i+0x234>)
 8004882:	230a      	movs	r3, #10
 8004884:	e011      	b.n	80048aa <_printf_i+0xfa>
 8004886:	6821      	ldr	r1, [r4, #0]
 8004888:	6833      	ldr	r3, [r6, #0]
 800488a:	0608      	lsls	r0, r1, #24
 800488c:	f853 5b04 	ldr.w	r5, [r3], #4
 8004890:	d402      	bmi.n	8004898 <_printf_i+0xe8>
 8004892:	0649      	lsls	r1, r1, #25
 8004894:	bf48      	it	mi
 8004896:	b2ad      	uxthmi	r5, r5
 8004898:	2f6f      	cmp	r7, #111	@ 0x6f
 800489a:	4852      	ldr	r0, [pc, #328]	@ (80049e4 <_printf_i+0x234>)
 800489c:	6033      	str	r3, [r6, #0]
 800489e:	bf14      	ite	ne
 80048a0:	230a      	movne	r3, #10
 80048a2:	2308      	moveq	r3, #8
 80048a4:	2100      	movs	r1, #0
 80048a6:	f884 1043 	strb.w	r1, [r4, #67]	@ 0x43
 80048aa:	6866      	ldr	r6, [r4, #4]
 80048ac:	60a6      	str	r6, [r4, #8]
 80048ae:	2e00      	cmp	r6, #0
 80048b0:	db05      	blt.n	80048be <_printf_i+0x10e>
 80048b2:	6821      	ldr	r1, [r4, #0]
 80048b4:	432e      	orrs	r6, r5
 80048b6:	f021 0104 	bic.w	r1, r1, #4
 80048ba:	6021      	str	r1, [r4, #0]
 80048bc:	d04b      	beq.n	8004956 <_printf_i+0x1a6>
 80048be:	4616      	mov	r6, r2
 80048c0:	fbb5 f1f3 	udiv	r1, r5, r3
 80048c4:	fb03 5711 	mls	r7, r3, r1, r5
 80048c8:	5dc7      	ldrb	r7, [r0, r7]
 80048ca:	f806 7d01 	strb.w	r7, [r6, #-1]!
 80048ce:	462f      	mov	r7, r5
 80048d0:	42bb      	cmp	r3, r7
 80048d2:	460d      	mov	r5, r1
 80048d4:	d9f4      	bls.n	80048c0 <_printf_i+0x110>
 80048d6:	2b08      	cmp	r3, #8
 80048d8:	d10b      	bne.n	80048f2 <_printf_i+0x142>
 80048da:	6823      	ldr	r3, [r4, #0]
 80048dc:	07df      	lsls	r7, r3, #31
 80048de:	d508      	bpl.n	80048f2 <_printf_i+0x142>
 80048e0:	6923      	ldr	r3, [r4, #16]
 80048e2:	6861      	ldr	r1, [r4, #4]
 80048e4:	4299      	cmp	r1, r3
 80048e6:	bfde      	ittt	le
 80048e8:	2330      	movle	r3, #48	@ 0x30
 80048ea:	f806 3c01 	strble.w	r3, [r6, #-1]
 80048ee:	f106 36ff 	addle.w	r6, r6, #4294967295	@ 0xffffffff
 80048f2:	1b92      	subs	r2, r2, r6
 80048f4:	6122      	str	r2, [r4, #16]
 80048f6:	f8cd a000 	str.w	sl, [sp]
 80048fa:	464b      	mov	r3, r9
 80048fc:	aa03      	add	r2, sp, #12
 80048fe:	4621      	mov	r1, r4
 8004900:	4640      	mov	r0, r8
 8004902:	f7ff fee7 	bl	80046d4 <_printf_common>
 8004906:	3001      	adds	r0, #1
 8004908:	d14a      	bne.n	80049a0 <_printf_i+0x1f0>
 800490a:	f04f 30ff 	mov.w	r0, #4294967295	@ 0xffffffff
 800490e:	b004      	add	sp, #16
 8004910:	e8bd 87f0 	ldmia.w	sp!, {r4, r5, r6, r7, r8, r9, sl, pc}
 8004914:	6823      	ldr	r3, [r4, #0]
 8004916:	f043 0320 	orr.w	r3, r3, #32
 800491a:	6023      	str	r3, [r4, #0]
 800491c:	4832      	ldr	r0, [pc, #200]	@ (80049e8 <_printf_i+0x238>)
 800491e:	2778      	movs	r7, #120	@ 0x78
 8004920:	f884 7045 	strb.w	r7, [r4, #69]	@ 0x45
 8004924:	6823      	ldr	r3, [r4, #0]
 8004926:	6831      	ldr	r1, [r6, #0]
 8004928:	061f      	lsls	r7, r3, #24
 800492a:	f851 5b04 	ldr.w	r5, [r1], #4
 800492e:	d402      	bmi.n	8004936 <_printf_i+0x186>
 8004930:	065f      	lsls	r7, r3, #25
 8004932:	bf48      	it	mi
 8004934:	b2ad      	uxthmi	r5, r5
 8004936:	6031      	str	r1, [r6, #0]
 8004938:	07d9      	lsls	r1, r3, #31
 800493a:	bf44      	itt	mi
 800493c:	f043 0320 	orrmi.w	r3, r3, #32
 8004940:	6023      	strmi	r3, [r4, #0]
 8004942:	b11d      	cbz	r5, 800494c <_printf_i+0x19c>
 8004944:	2310      	movs	r3, #16
 8004946:	e7ad      	b.n	80048a4 <_printf_i+0xf4>
 8004948:	4826      	ldr	r0, [pc, #152]	@ (80049e4 <_printf_i+0x234>)
 800494a:	e7e9      	b.n	8004920 <_printf_i+0x170>
 800494c:	6823      	ldr	r3, [r4, #0]
 800494e:	f023 0320 	bic.w	r3, r3, #32
 8004952:	6023      	str	r3, [r4, #0]
 8004954:	e7f6      	b.n	8004944 <_printf_i+0x194>
 8004956:	4616      	mov	r6, r2
 8004958:	e7bd      	b.n	80048d6 <_printf_i+0x126>
 800495a:	6833      	ldr	r3, [r6, #0]
 800495c:	6825      	ldr	r5, [r4, #0]
 800495e:	6961      	ldr	r1, [r4, #20]
 8004960:	1d18      	adds	r0, r3, #4
 8004962:	6030      	str	r0, [r6, #0]
 8004964:	062e      	lsls	r6, r5, #24
 8004966:	681b      	ldr	r3, [r3, #0]
 8004968:	d501      	bpl.n	800496e <_printf_i+0x1be>
 800496a:	6019      	str	r1, [r3, #0]
 800496c:	e002      	b.n	8004974 <_printf_i+0x1c4>
 800496e:	0668      	lsls	r0, r5, #25
 8004970:	d5fb      	bpl.n	800496a <_printf_i+0x1ba>
 8004972:	8019      	strh	r1, [r3, #0]
 8004974:	2300      	movs	r3, #0
 8004976:	6123      	str	r3, [r4, #16]
 8004978:	4616      	mov	r6, r2
 800497a:	e7bc      	b.n	80048f6 <_printf_i+0x146>
 800497c:	6833      	ldr	r3, [r6, #0]
 800497e:	1d1a      	adds	r2, r3, #4
 8004980:	6032      	str	r2, [r6, #0]
 8004982:	681e      	ldr	r6, [r3, #0]
 8004984:	6862      	ldr	r2, [r4, #4]
 8004986:	2100      	movs	r1, #0
 8004988:	4630      	mov	r0, r6
 800498a:	f7fb fc49 	bl	8000220 <memchr>
 800498e:	b108      	cbz	r0, 8004994 <_printf_i+0x1e4>
 8004990:	1b80      	subs	r0, r0, r6
 8004992:	6060      	str	r0, [r4, #4]
 8004994:	6863      	ldr	r3, [r4, #4]
 8004996:	6123      	str	r3, [r4, #16]
 8004998:	2300      	movs	r3, #0
 800499a:	f884 3043 	strb.w	r3, [r4, #67]	@ 0x43
 800499e:	e7aa      	b.n	80048f6 <_printf_i+0x146>
 80049a0:	6923      	ldr	r3, [r4, #16]
 80049a2:	4632      	mov	r2, r6
 80049a4:	4649      	mov	r1, r9
 80049a6:	4640      	mov	r0, r8
 80049a8:	47d0      	blx	sl
 80049aa:	3001      	adds	r0, #1
 80049ac:	d0ad      	beq.n	800490a <_printf_i+0x15a>
 80049ae:	6823      	ldr	r3, [r4, #0]
 80049b0:	079b      	lsls	r3, r3, #30
 80049b2:	d413      	bmi.n	80049dc <_printf_i+0x22c>
 80049b4:	68e0      	ldr	r0, [r4, #12]
 80049b6:	9b03      	ldr	r3, [sp, #12]
 80049b8:	4298      	cmp	r0, r3
 80049ba:	bfb8      	it	lt
 80049bc:	4618      	movlt	r0, r3
 80049be:	e7a6      	b.n	800490e <_printf_i+0x15e>
 80049c0:	2301      	movs	r3, #1
 80049c2:	4632      	mov	r2, r6
 80049c4:	4649      	mov	r1, r9
 80049c6:	4640      	mov	r0, r8
 80049c8:	47d0      	blx	sl
 80049ca:	3001      	adds	r0, #1
 80049cc:	d09d      	beq.n	800490a <_printf_i+0x15a>
 80049ce:	3501      	adds	r5, #1
 80049d0:	68e3      	ldr	r3, [r4, #12]
 80049d2:	9903      	ldr	r1, [sp, #12]
 80049d4:	1a5b      	subs	r3, r3, r1
 80049d6:	42ab      	cmp	r3, r5
 80049d8:	dcf2      	bgt.n	80049c0 <_printf_i+0x210>
 80049da:	e7eb      	b.n	80049b4 <_printf_i+0x204>
 80049dc:	2500      	movs	r5, #0
 80049de:	f104 0619 	add.w	r6, r4, #25
 80049e2:	e7f5      	b.n	80049d0 <_printf_i+0x220>
 80049e4:	08004be5 	.word	0x08004be5
 80049e8:	08004bf6 	.word	0x08004bf6

080049ec <memmove>:
 80049ec:	4288      	cmp	r0, r1
 80049ee:	b510      	push	{r4, lr}
 80049f0:	eb01 0402 	add.w	r4, r1, r2
 80049f4:	d902      	bls.n	80049fc <memmove+0x10>
 80049f6:	4284      	cmp	r4, r0
 80049f8:	4623      	mov	r3, r4
 80049fa:	d807      	bhi.n	8004a0c <memmove+0x20>
 80049fc:	1e43      	subs	r3, r0, #1
 80049fe:	42a1      	cmp	r1, r4
 8004a00:	d008      	beq.n	8004a14 <memmove+0x28>
 8004a02:	f811 2b01 	ldrb.w	r2, [r1], #1
 8004a06:	f803 2f01 	strb.w	r2, [r3, #1]!
 8004a0a:	e7f8      	b.n	80049fe <memmove+0x12>
 8004a0c:	4402      	add	r2, r0
 8004a0e:	4601      	mov	r1, r0
 8004a10:	428a      	cmp	r2, r1
 8004a12:	d100      	bne.n	8004a16 <memmove+0x2a>
 8004a14:	bd10      	pop	{r4, pc}
 8004a16:	f813 4d01 	ldrb.w	r4, [r3, #-1]!
 8004a1a:	f802 4d01 	strb.w	r4, [r2, #-1]!
 8004a1e:	e7f7      	b.n	8004a10 <memmove+0x24>

08004a20 <_sbrk_r>:
 8004a20:	b538      	push	{r3, r4, r5, lr}
 8004a22:	4d06      	ldr	r5, [pc, #24]	@ (8004a3c <_sbrk_r+0x1c>)
 8004a24:	2300      	movs	r3, #0
 8004a26:	4604      	mov	r4, r0
 8004a28:	4608      	mov	r0, r1
 8004a2a:	602b      	str	r3, [r5, #0]
 8004a2c:	f7fc fd18 	bl	8001460 <_sbrk>
 8004a30:	1c43      	adds	r3, r0, #1
 8004a32:	d102      	bne.n	8004a3a <_sbrk_r+0x1a>
 8004a34:	682b      	ldr	r3, [r5, #0]
 8004a36:	b103      	cbz	r3, 8004a3a <_sbrk_r+0x1a>
 8004a38:	6023      	str	r3, [r4, #0]
 8004a3a:	bd38      	pop	{r3, r4, r5, pc}
 8004a3c:	20000374 	.word	0x20000374

08004a40 <_realloc_r>:
 8004a40:	e92d 41f0 	stmdb	sp!, {r4, r5, r6, r7, r8, lr}
 8004a44:	4607      	mov	r7, r0
 8004a46:	4614      	mov	r4, r2
 8004a48:	460d      	mov	r5, r1
 8004a4a:	b921      	cbnz	r1, 8004a56 <_realloc_r+0x16>
 8004a4c:	e8bd 41f0 	ldmia.w	sp!, {r4, r5, r6, r7, r8, lr}
 8004a50:	4611      	mov	r1, r2
 8004a52:	f7ff bc5b 	b.w	800430c <_malloc_r>
 8004a56:	b92a      	cbnz	r2, 8004a64 <_realloc_r+0x24>
 8004a58:	f7ff fbec 	bl	8004234 <_free_r>
 8004a5c:	4625      	mov	r5, r4
 8004a5e:	4628      	mov	r0, r5
 8004a60:	e8bd 81f0 	ldmia.w	sp!, {r4, r5, r6, r7, r8, pc}
 8004a64:	f000 f81a 	bl	8004a9c <_malloc_usable_size_r>
 8004a68:	4284      	cmp	r4, r0
 8004a6a:	4606      	mov	r6, r0
 8004a6c:	d802      	bhi.n	8004a74 <_realloc_r+0x34>
 8004a6e:	ebb4 0f50 	cmp.w	r4, r0, lsr #1
 8004a72:	d8f4      	bhi.n	8004a5e <_realloc_r+0x1e>
 8004a74:	4621      	mov	r1, r4
 8004a76:	4638      	mov	r0, r7
 8004a78:	f7ff fc48 	bl	800430c <_malloc_r>
 8004a7c:	4680      	mov	r8, r0
 8004a7e:	b908      	cbnz	r0, 8004a84 <_realloc_r+0x44>
 8004a80:	4645      	mov	r5, r8
 8004a82:	e7ec      	b.n	8004a5e <_realloc_r+0x1e>
 8004a84:	42b4      	cmp	r4, r6
 8004a86:	4622      	mov	r2, r4
 8004a88:	4629      	mov	r1, r5
 8004a8a:	bf28      	it	cs
 8004a8c:	4632      	movcs	r2, r6
 8004a8e:	f7ff fbc3 	bl	8004218 <memcpy>
 8004a92:	4629      	mov	r1, r5
 8004a94:	4638      	mov	r0, r7
 8004a96:	f7ff fbcd 	bl	8004234 <_free_r>
 8004a9a:	e7f1      	b.n	8004a80 <_realloc_r+0x40>

08004a9c <_malloc_usable_size_r>:
 8004a9c:	f851 3c04 	ldr.w	r3, [r1, #-4]
 8004aa0:	1f18      	subs	r0, r3, #4
 8004aa2:	2b00      	cmp	r3, #0
 8004aa4:	bfbc      	itt	lt
 8004aa6:	580b      	ldrlt	r3, [r1, r0]
 8004aa8:	18c0      	addlt	r0, r0, r3
 8004aaa:	4770      	bx	lr

08004aac <_init>:
 8004aac:	b5f8      	push	{r3, r4, r5, r6, r7, lr}
 8004aae:	bf00      	nop
 8004ab0:	bcf8      	pop	{r3, r4, r5, r6, r7}
 8004ab2:	bc08      	pop	{r3}
 8004ab4:	469e      	mov	lr, r3
 8004ab6:	4770      	bx	lr

08004ab8 <_fini>:
 8004ab8:	b5f8      	push	{r3, r4, r5, r6, r7, lr}
 8004aba:	bf00      	nop
 8004abc:	bcf8      	pop	{r3, r4, r5, r6, r7}
 8004abe:	bc08      	pop	{r3}
 8004ac0:	469e      	mov	lr, r3
 8004ac2:	4770      	bx	lr
